 PhysX3CharacterKinematicDEBUG_x86

 Timestamp is 5743e3d0 (Tue May 24 15:17:04 2016)

 Preferred load address is 10000000

 Start         Length     Name                   Class
 0001:00000000 00002fc6H .text$di                CODE
 0001:00002fd0 0002fb99H .text$mn                CODE
 0002:00000000 00000104H .CRT$XCA                DATA
 0002:00000104 00000139H .CRT$XCU                DATA
 0002:00000240 00000104H .CRT$XCZ                DATA
 0002:00000344 00000104H .CRT$XIA                DATA
 0002:00000448 00000104H .CRT$XIZ                DATA
 0002:0000054c 00000104H .CRT$XPA                DATA
 0002:00000650 00000104H .CRT$XPZ                DATA
 0002:00000754 00000104H .CRT$XTA                DATA
 0002:00000858 00000104H .CRT$XTZ                DATA
 0002:00000960 0000357cH .rdata                  DATA
 0002:00003edc 00000156H .rdata$r                DATA
 0002:00004040 00000104H .rdata$sxdata           DATA
 0002:00004144 000001b6H .rdata$zzzdbg           DATA
 0002:000042fc 00000104H .rtc$IAA                DATA
 0002:00004400 00000139H .rtc$IMZ                DATA
 0002:0000453c 00000104H .rtc$IZZ                DATA
 0002:00004640 00000104H .rtc$TAA                DATA
 0002:00004744 00000139H .rtc$TMZ                DATA
 0002:00004880 00000104H .rtc$TZZ                DATA
 0002:00004988 000001d5H .xdata$x                DATA
 0002:00004b60 0000034fH .edata                  DATA
 0003:00000000 00000175H .data                   DATA
 0003:00000178 0000024cH .data$r                 DATA
 0003:000003d0 00000618H .bss                    DATA
 0004:00000000 0000028cH .idata$5                DATA
 0004:0000028c 00000050H .idata$2                DATA
 0004:000002dc 00000014H .idata$3                DATA
 0004:000002f0 0000028cH .idata$4                DATA
 0004:0000057c 000012f1H .idata$6                DATA
 0005:00000000 00000133H .gfids$y                DATA
 0006:00000000 00000104H .00cfg                  DATA
 0007:00000000 000001c0H .rsrc$01                DATA
 0007:000001c0 00000700H .rsrc$02                DATA

  Address         Publics by Value              Rva+Base       Lib:Object

 0000:00000000       ___guard_longjmp_table     00000000     <absolute>
 0000:00000000       ___guard_iat_table         00000000     <absolute>
 0000:00000000       ___guard_fids_table        00000000     <absolute>
 0000:00000000       ___guard_iat_count         00000000     <absolute>
 0000:00000000       ___guard_longjmp_count     00000000     <absolute>
 0000:00000000       ___guard_fids_count        00000000     <absolute>
 0000:00000001       ___safe_se_handler_count   00000001     <absolute>
 0000:00000100       ___guard_flags             00000100     <absolute>
 0000:00000000       ___ImageBase               10000000     <linker-defined>
 0001:00002fd0       ??0BoxController@Cct@physx@@QAE@ABVPxControllerDesc@2@AAVPxPhysics@2@PAVPxScene@2@@Z 10003fd0 f   CctBoxController.obj
 0001:000030c0       ??1BoxController@Cct@physx@@UAE@XZ 100040c0 f   CctBoxController.obj
 0001:00003100       ?getWorldBox@BoxController@Cct@physx@@UBE_NAAUPxExtendedBounds3@3@@Z 10004100 f   CctBoxController.obj
 0001:00003170       ?setFootPosition@BoxController@Cct@physx@@UAE_NABUPxExtendedVec3@3@@Z 10004170 f   CctBoxController.obj
 0001:000031f0       ?getFootPosition@BoxController@Cct@physx@@UBE?AUPxExtendedVec3@3@XZ 100041f0 f   CctBoxController.obj
 0001:00003290       ?invalidateCache@BoxController@Cct@physx@@UAEXXZ 10004290 f   CctBoxController.obj
 0001:000032f0       ?resize@BoxController@Cct@physx@@UAEXM@Z 100042f0 f   CctBoxController.obj
 0001:000033a0       ?getHalfHeight@BoxController@Cct@physx@@UBEMXZ 100043a0 f   CctBoxController.obj
 0001:000033c0       ?getHalfSideExtent@BoxController@Cct@physx@@UBEMXZ 100043c0 f   CctBoxController.obj
 0001:000033e0       ?getHalfForwardExtent@BoxController@Cct@physx@@UBEMXZ 100043e0 f   CctBoxController.obj
 0001:00003400       ?setHalfHeight@BoxController@Cct@physx@@UAE_NM@Z 10004400 f   CctBoxController.obj
 0001:00003440       ?setHalfSideExtent@BoxController@Cct@physx@@UAE_NM@Z 10004440 f   CctBoxController.obj
 0001:00003480       ?setHalfForwardExtent@BoxController@Cct@physx@@UAE_NM@Z 10004480 f   CctBoxController.obj
 0001:000034c0       ?updateKinematicProxy@BoxController@Cct@physx@@QAE_NXZ 100044c0 f   CctBoxController.obj
 0001:000035c0       ?getOBB@BoxController@Cct@physx@@QBEXAAVPxExtendedBox@3@@Z 100045c0 f   CctBoxController.obj
 0001:00003820       ??0PxBoxController@physx@@IAE@XZ 10004820 f i CctBoxController.obj
 0001:00003850       ??0PxBoxGeometry@physx@@QAE@XZ 10004850 f i CctBoxController.obj
 0001:000038b0       ??0PxController@physx@@IAE@XZ 100048b0 f i CctBoxController.obj
 0001:000038d0       ??0PxControllerManager@physx@@IAE@XZ 100048d0 f i CctBoxController.obj
 0001:000038f0       ??0PxControllerManager@physx@@QAE@ABV01@@Z 100048f0 f i CctBoxController.obj
 0001:00003910       ??0PxExtendedBounds3@physx@@QAE@XZ 10004910 f i CctBoxController.obj
 0001:00003940       ??0PxExtendedVec3@physx@@QAE@NNN@Z 10004940 f i CctBoxController.obj
 0001:00003990       ??0PxExtendedVec3@physx@@QAE@XZ 10004990 f i CctBoxController.obj
 0001:000039b0       ??0PxGeometry@physx@@IAE@W4Enum@PxGeometryType@1@@Z 100049b0 f i CctBoxController.obj
 0001:000039d0       ??0PxVec3@physx@@QAE@ABV01@@Z 100049d0 f i CctBoxController.obj
 0001:00003a10       ??0PxVec3@physx@@QAE@MMM@Z 10004a10 f i CctBoxController.obj
 0001:00003a60       ??1PxBoxController@physx@@MAE@XZ 10004a60 f i CctBoxController.obj
 0001:00003a90       ??1PxController@physx@@MAE@XZ 10004a90 f i CctBoxController.obj
 0001:00003ab0       ??1PxControllerManager@physx@@MAE@XZ 10004ab0 f i CctBoxController.obj
 0001:00003ad0       ??3UserAllocated@shdfnd@physx@@SAXPAX@Z 10004ad0 f i CctBoxController.obj
 0001:00003b00       ??4PxControllerManager@physx@@QAEAAV01@ABV01@@Z 10004b00 f i CctBoxController.obj
 0001:00003b20       ??4PxQuat@physx@@QAEAAV01@ABV01@@Z 10004b20 f i CctBoxController.obj
 0001:00003b70       ??4PxVec3@physx@@QAEAAV01@ABV01@@Z 10004b70 f i CctBoxController.obj
 0001:00003bb0       ??DPxVec3@physx@@QBE?AV01@M@Z 10004bb0 f i CctBoxController.obj
 0001:00003c20       ??GPxExtendedVec3@physx@@QBE?AVPxVec3@1@ABU01@@Z 10004c20 f i CctBoxController.obj
 0001:00003ca0       ??HPxExtendedVec3@physx@@QBE?AU01@ABU01@@Z 10004ca0 f i CctBoxController.obj
 0001:00003d20       ??XPxExtendedVec3@physx@@QAEAAU01@ABM@Z 10004d20 f i CctBoxController.obj
 0001:00003d90       ??XPxVec3@physx@@QAEAAV01@M@Z 10004d90 f i CctBoxController.obj
 0001:00003df0       ??YPxExtendedVec3@physx@@QAEAAU01@ABVPxVec3@1@@Z 10004df0 f i CctBoxController.obj
 0001:00003e60       ??ZPxExtendedVec3@physx@@QAEAAU01@ABVPxVec3@1@@Z 10004e60 f i CctBoxController.obj
 0001:00003ed9       ??_EBoxController@Cct@physx@@W7AEPAXI@Z 10004ed9 f i CctBoxController.obj
 0001:00003ef0       ??_EPxControllerManager@physx@@MAEPAXI@Z 10004ef0 f i CctBoxController.obj
 0001:00003f90       ??_GBoxController@Cct@physx@@UAEPAXI@Z 10004f90 f i CctBoxController.obj
 0001:00003f90       ??_EBoxController@Cct@physx@@UAEPAXI@Z 10004f90 f i CctBoxController.obj
 0001:00003ff0       ??_GPxBoxController@physx@@MAEPAXI@Z 10004ff0 f i CctBoxController.obj
 0001:00003ff0       ??_EPxBoxController@physx@@MAEPAXI@Z 10004ff0 f i CctBoxController.obj
 0001:00004030       ??_GPxController@physx@@MAEPAXI@Z 10005030 f i CctBoxController.obj
 0001:00004030       ??_EPxController@physx@@MAEPAXI@Z 10005030 f i CctBoxController.obj
 0001:00004070       ??_GPxControllerManager@physx@@MAEPAXI@Z 10005070 f i CctBoxController.obj
 0001:000040b0       ??_H@YGXPAXIIP6EPAX0@Z@Z   100050b0 f i CctBoxController.obj
 0001:00004110       ??_I@YGXPAXIIP6EX0@Z@Z     10005110 f i CctBoxController.obj
 0001:00004180       ?__empty_global_delete@@YAXPAX@Z 10005180 f i CctBoxController.obj
 0001:00004190       ?__empty_global_delete@@YAXPAXI@Z 10005190 f i CctBoxController.obj
 0001:00004190       ?__global_delete@@YAXPAXI@Z 10005190 f i CctBoxController.obj
 0001:000041a0       ?createController@PxControllerManager@physx@@UAEPAVPxController@2@AAVPxPhysics@2@PAVPxScene@2@ABVPxControllerDesc@2@@Z 100051a0 f i CctBoxController.obj
 0001:00004210       ?getActor@BoxController@Cct@physx@@UBEPAVPxRigidDynamic@3@XZ 10005210 f i CctBoxController.obj
 0001:00004230       ?getCenter@physx@@YAXABUPxExtendedBounds3@1@AAUPxExtendedVec3@1@@Z 10005230 f i CctBoxController.obj
 0001:000042b0       ?getContactOffset@BoxController@Cct@physx@@UBEMXZ 100052b0 f i CctBoxController.obj
 0001:000042d0       ?getExtents@physx@@YAXABUPxExtendedBounds3@1@AAVPxVec3@1@@Z 100052d0 f i CctBoxController.obj
 0001:00004320       ?getHalfHeightInternal@BoxController@Cct@physx@@UBEMXZ 10005320 f i CctBoxController.obj
 0001:00004340       ?getNonWalkableMode@BoxController@Cct@physx@@UBE?AW4Enum@PxControllerNonWalkableMode@3@XZ 10005340 f i CctBoxController.obj
 0001:00004360       ?getPosition@BoxController@Cct@physx@@UBEABUPxExtendedVec3@3@XZ 10005360 f i CctBoxController.obj
 0001:00004380       ?getPxController@BoxController@Cct@physx@@UAEPAVPxController@3@XZ 10005380 f i CctBoxController.obj
 0001:000043a0       ?getScene@BoxController@Cct@physx@@UAEPAVPxScene@3@XZ 100053a0 f i CctBoxController.obj
 0001:000043c0       ?getSlopeLimit@BoxController@Cct@physx@@UBEMXZ 100053c0 f i CctBoxController.obj
 0001:000043e0       ?getState@BoxController@Cct@physx@@UBEXAAUPxControllerState@3@@Z 100053e0 f i CctBoxController.obj
 0001:00004410       ?getStats@BoxController@Cct@physx@@UBEXAAUPxControllerStats@3@@Z 10005410 f i CctBoxController.obj
 0001:00004440       ?getStepOffset@BoxController@Cct@physx@@UBEMXZ 10005440 f i CctBoxController.obj
 0001:00004460       ?getType@BoxController@Cct@physx@@UBE?AW4Enum@PxControllerShapeType@3@XZ 10005460 f i CctBoxController.obj
 0001:00004480       ?getUpDirection@BoxController@Cct@physx@@UBE?AVPxVec3@3@XZ 10005480 f i CctBoxController.obj
 0001:000044b0       ?getUserData@BoxController@Cct@physx@@UBEPAXXZ 100054b0 f i CctBoxController.obj
 0001:000044d0       ?lock@?$MutexT@V?$ReflectionAllocator@VMutexImpl@shdfnd@physx@@@shdfnd@physx@@@shdfnd@physx@@QBEXXZ 100054d0 f i CctBoxController.obj
 0001:000044f0       ?release@BoxController@Cct@physx@@UAEXXZ 100054f0 f i CctBoxController.obj
 0001:00004510       ?setCenterExtents@physx@@YAXAAUPxExtendedBounds3@1@ABUPxExtendedVec3@1@ABVPxVec3@1@@Z 10005510 f i CctBoxController.obj
 0001:000045a0       ?setContactOffset@BoxController@Cct@physx@@UAEXM@Z 100055a0 f i CctBoxController.obj
 0001:000045e0       ?setNonWalkableMode@BoxController@Cct@physx@@UAEXW4Enum@PxControllerNonWalkableMode@3@@Z 100055e0 f i CctBoxController.obj
 0001:00004600       ?setPosition@BoxController@Cct@physx@@UAE_NABUPxExtendedVec3@3@@Z 10005600 f i CctBoxController.obj
 0001:00004630       ?setSlopeLimit@BoxController@Cct@physx@@UAEXM@Z 10005630 f i CctBoxController.obj
 0001:00004670       ?setStepOffset@BoxController@Cct@physx@@UAEXM@Z 10005670 f i CctBoxController.obj
 0001:000046b0       ?setUpDirection@BoxController@Cct@physx@@UAEXABVPxVec3@3@@Z 100056b0 f i CctBoxController.obj
 0001:000046e0       ?setUserData@BoxController@Cct@physx@@UAEXPAX@Z 100056e0 f i CctBoxController.obj
 0001:00004700       ?unlock@?$MutexT@V?$ReflectionAllocator@VMutexImpl@shdfnd@physx@@@shdfnd@physx@@@shdfnd@physx@@QBEXXZ 10005700 f i CctBoxController.obj
 0001:00004720       ??0CapsuleController@Cct@physx@@QAE@ABVPxControllerDesc@2@AAVPxPhysics@2@PAVPxScene@2@@Z 10005720 f   CctCapsuleController.obj
 0001:00004820       ??1CapsuleController@Cct@physx@@UAE@XZ 10005820 f   CctCapsuleController.obj
 0001:00004860       ?getWorldBox@CapsuleController@Cct@physx@@UBE_NAAUPxExtendedBounds3@3@@Z 10005860 f   CctCapsuleController.obj
 0001:000048e0       ?setFootPosition@CapsuleController@Cct@physx@@UAE_NABUPxExtendedVec3@3@@Z 100058e0 f   CctCapsuleController.obj
 0001:00004970       ?getFootPosition@CapsuleController@Cct@physx@@UBE?AUPxExtendedVec3@3@XZ 10005970 f   CctCapsuleController.obj
 0001:00004a20       ?invalidateCache@CapsuleController@Cct@physx@@UAEXXZ 10005a20 f   CctCapsuleController.obj
 0001:00004a80       ?resize@CapsuleController@Cct@physx@@UAEXM@Z 10005a80 f   CctCapsuleController.obj
 0001:00004b50       ?getClimbingMode@CapsuleController@Cct@physx@@UBE?AW4Enum@PxCapsuleClimbingMode@3@XZ 10005b50 f   CctCapsuleController.obj
 0001:00004b70       ?setRadius@CapsuleController@Cct@physx@@UAE_NM@Z 10005b70 f   CctCapsuleController.obj
 0001:00004c50       ?setHeight@CapsuleController@Cct@physx@@UAE_NM@Z 10005c50 f   CctCapsuleController.obj
 0001:00004d30       ?setClimbingMode@CapsuleController@Cct@physx@@UAE_NW4Enum@PxCapsuleClimbingMode@3@@Z 10005d30 f   CctCapsuleController.obj
 0001:00004d60       ?getCapsule@CapsuleController@Cct@physx@@QBEXAAUPxExtendedCapsule@3@@Z 10005d60 f   CctCapsuleController.obj
 0001:000050b0       ??0PxCapsuleController@physx@@IAE@XZ 100060b0 f i CctCapsuleController.obj
 0001:000050e0       ??0PxCapsuleGeometry@physx@@QAE@XZ 100060e0 f i CctCapsuleController.obj
 0001:00005130       ??1PxCapsuleController@physx@@MAE@XZ 10006130 f i CctCapsuleController.obj
 0001:00005153       ??_ECapsuleController@Cct@physx@@W7AEPAXI@Z 10006153 f i CctCapsuleController.obj
 0001:00005160       ??_ECapsuleController@Cct@physx@@UAEPAXI@Z 10006160 f i CctCapsuleController.obj
 0001:00005160       ??_GCapsuleController@Cct@physx@@UAEPAXI@Z 10006160 f i CctCapsuleController.obj
 0001:000051c0       ??_EPxCapsuleController@physx@@MAEPAXI@Z 100061c0 f i CctCapsuleController.obj
 0001:000051c0       ??_GPxCapsuleController@physx@@MAEPAXI@Z 100061c0 f i CctCapsuleController.obj
 0001:00005200       ?getActor@CapsuleController@Cct@physx@@UBEPAVPxRigidDynamic@3@XZ 10006200 f i CctCapsuleController.obj
 0001:00005220       ?getContactOffset@CapsuleController@Cct@physx@@UBEMXZ 10006220 f i CctCapsuleController.obj
 0001:00005240       ?getHalfHeightInternal@CapsuleController@Cct@physx@@UBEMXZ 10006240 f i CctCapsuleController.obj
 0001:00005280       ?getHeight@CapsuleController@Cct@physx@@UBEMXZ 10006280 f i CctCapsuleController.obj
 0001:000052a0       ?getNonWalkableMode@CapsuleController@Cct@physx@@UBE?AW4Enum@PxControllerNonWalkableMode@3@XZ 100062a0 f i CctCapsuleController.obj
 0001:000052c0       ?getPosition@CapsuleController@Cct@physx@@UBEABUPxExtendedVec3@3@XZ 100062c0 f i CctCapsuleController.obj
 0001:000052e0       ?getPxController@CapsuleController@Cct@physx@@UAEPAVPxController@3@XZ 100062e0 f i CctCapsuleController.obj
 0001:00005300       ?getRadius@CapsuleController@Cct@physx@@UBEMXZ 10006300 f i CctCapsuleController.obj
 0001:00005320       ?getScene@CapsuleController@Cct@physx@@UAEPAVPxScene@3@XZ 10006320 f i CctCapsuleController.obj
 0001:00005340       ?getSlopeLimit@CapsuleController@Cct@physx@@UBEMXZ 10006340 f i CctCapsuleController.obj
 0001:00005360       ?getState@CapsuleController@Cct@physx@@UBEXAAUPxControllerState@3@@Z 10006360 f i CctCapsuleController.obj
 0001:00005390       ?getStats@CapsuleController@Cct@physx@@UBEXAAUPxControllerStats@3@@Z 10006390 f i CctCapsuleController.obj
 0001:000053c0       ?getStepOffset@CapsuleController@Cct@physx@@UBEMXZ 100063c0 f i CctCapsuleController.obj
 0001:000053e0       ?getType@CapsuleController@Cct@physx@@UBE?AW4Enum@PxControllerShapeType@3@XZ 100063e0 f i CctCapsuleController.obj
 0001:00005400       ?getUpDirection@CapsuleController@Cct@physx@@UBE?AVPxVec3@3@XZ 10006400 f i CctCapsuleController.obj
 0001:00005430       ?getUserData@CapsuleController@Cct@physx@@UBEPAXXZ 10006430 f i CctCapsuleController.obj
 0001:00005450       ?release@CapsuleController@Cct@physx@@UAEXXZ 10006450 f i CctCapsuleController.obj
 0001:00005470       ?setContactOffset@CapsuleController@Cct@physx@@UAEXM@Z 10006470 f i CctCapsuleController.obj
 0001:000054b0       ?setNonWalkableMode@CapsuleController@Cct@physx@@UAEXW4Enum@PxControllerNonWalkableMode@3@@Z 100064b0 f i CctCapsuleController.obj
 0001:000054d0       ?setPosition@CapsuleController@Cct@physx@@UAE_NABUPxExtendedVec3@3@@Z 100064d0 f i CctCapsuleController.obj
 0001:00005500       ?setSlopeLimit@CapsuleController@Cct@physx@@UAEXM@Z 10006500 f i CctCapsuleController.obj
 0001:00005540       ?setStepOffset@CapsuleController@Cct@physx@@UAEXM@Z 10006540 f i CctCapsuleController.obj
 0001:00005580       ?setUpDirection@CapsuleController@Cct@physx@@UAEXABVPxVec3@3@@Z 10006580 f i CctCapsuleController.obj
 0001:000055b0       ?setUserData@CapsuleController@Cct@physx@@UAEXPAX@Z 100065b0 f i CctCapsuleController.obj
 0001:000055d0       ??0CCTParams@Cct@physx@@QAE@XZ 100065d0 f   CctCharacterController.obj
 0001:00005690       ??0SweepTest@Cct@physx@@QAE@XZ 10006690 f   CctCharacterController.obj
 0001:000059b0       ??1SweepTest@Cct@physx@@QAE@XZ 100069b0 f   CctCharacterController.obj
 0001:000059e0       ?moveCharacter@SweepTest@Cct@physx@@QAE?AV?$PxFlags@W4Enum@PxControllerCollisionFlag@physx@@E@3@PBUInternalCBData_FindTouchedGeom@23@PBUInternalCBData_OnHit@23@AAVSweptVolume@23@ABVPxVec3@3@ABUUserObstacles@23@MABVPxControllerFilters@3@_N6@Z 100069e0 f   CctCharacterController.obj
 0001:000063f0       ?doSweepTest@SweepTest@Cct@physx@@QAE_NPBUInternalCBData_FindTouchedGeom@23@PBUInternalCBData_OnHit@23@ABUUserObstacles@23@AAVSweptVolume@23@ABVPxVec3@3@4IPAIMABVPxControllerFilters@3@W4SweepPass@23@@Z 100073f0 f   CctCharacterController.obj
 0001:00006e90       ?findTouchedObstacles@SweepTest@Cct@physx@@QAEXABUUserObstacles@23@ABUPxExtendedBounds3@3@@Z 10007e90 f   CctCharacterController.obj
 0001:00007370       ?voidTestCache@SweepTest@Cct@physx@@QAEXXZ 10008370 f   CctCharacterController.obj
 0001:000073b0       ?onRelease@SweepTest@Cct@physx@@QAEXABVPxBase@3@@Z 100083b0 f   CctCharacterController.obj
 0001:00007460       ?onObstacleRemoved@SweepTest@Cct@physx@@QAEXI@Z 10008460 f   CctCharacterController.obj
 0001:00007490       ?onObstacleUpdated@SweepTest@Cct@physx@@QAEXIPBVPxObstacleContext@3@ABVPxVec3@3@1M@Z 10008490 f   CctCharacterController.obj
 0001:000075f0       ?onObstacleAdded@SweepTest@Cct@physx@@QAEXIPBVPxObstacleContext@3@ABVPxVec3@3@1M@Z 100085f0 f   CctCharacterController.obj
 0001:00007770       ?onOriginShift@SweepTest@Cct@physx@@QAEXABVPxVec3@3@@Z 10008770 f   CctCharacterController.obj
 0001:00007870       ?updateTouchedGeoms@SweepTest@Cct@physx@@AAEXPBUInternalCBData_FindTouchedGeom@23@ABUUserObstacles@23@ABUPxExtendedBounds3@3@ABVPxControllerFilters@3@ABVPxVec3@3@@Z 10008870 f   CctCharacterController.obj
 0001:00007e70       ?findTouchedObject@Controller@Cct@physx@@IAEXABVPxControllerFilters@3@PBVPxObstacleContext@3@ABVPxVec3@3@@Z 10008e70 f   CctCharacterController.obj
 0001:00008440       ?rideOnTouchedObject@Controller@Cct@physx@@IAE_NAAVSweptVolume@23@ABVPxVec3@3@AAV53@PBVPxObstacleContext@3@@Z 10009440 f   CctCharacterController.obj
 0001:000088f0       ?move@Controller@Cct@physx@@IAE?AV?$PxFlags@W4Enum@PxControllerCollisionFlag@physx@@E@3@AAVSweptVolume@23@ABVPxVec3@3@MMABVPxControllerFilters@3@PBVPxObstacleContext@3@_N@Z 100098f0 f   CctCharacterController.obj
 0001:00009880       ?filterTouchedShape@Controller@Cct@physx@@IAE_NABVPxControllerFilters@3@@Z 1000a880 f   CctCharacterController.obj
 0001:0000bb90       ?move@BoxController@Cct@physx@@UAE?AV?$PxFlags@W4Enum@PxControllerCollisionFlag@physx@@E@3@ABVPxVec3@3@MMABVPxControllerFilters@3@PBVPxObstacleContext@3@@Z 1000cb90 f   CctCharacterController.obj
 0001:0000bc80       ?move@CapsuleController@Cct@physx@@UAE?AV?$PxFlags@W4Enum@PxControllerCollisionFlag@physx@@E@3@ABVPxVec3@3@MMABVPxControllerFilters@3@PBVPxObstacleContext@3@@Z 1000cc80 f   CctCharacterController.obj
 0001:0000d760       ??$PX_UNUSED@I@@YAXABI@Z   1000e760 f i CctCharacterController.obj
 0001:0000d770       ??$PX_UNUSED@PBUPxRaycastHit@physx@@@@YAXABQBUPxRaycastHit@physx@@@Z 1000e770 f i CctCharacterController.obj
 0001:0000d780       ??$PX_UNUSED@W4PxIDENTITY@physx@@@@YAXABW4PxIDENTITY@physx@@@Z 1000e780 f i CctCharacterController.obj
 0001:0000d790       ??$PxMax@N@physx@@YANNN@Z  1000e790 f i CctCharacterController.obj
 0001:0000d7d0       ??$PxMin@N@physx@@YANNN@Z  1000e7d0 f i CctCharacterController.obj
 0001:0000d810       ??$PxUnionCast@PBVPxGeometry@physx@@PAY03$$CBE@physx@@YAPBVPxGeometry@0@PAY03$$CBE@Z 1000e810 f i CctCharacterController.obj
 0001:0000d830       ??$reserve@IVNamedAllocator@shdfnd@physx@@@Cct@physx@@YAPAIAAV?$Array@IVNamedAllocator@shdfnd@physx@@@shdfnd@1@I@Z 1000e830 f i CctCharacterController.obj
 0001:0000d880       ??0?$Array@IVNamedAllocator@shdfnd@physx@@@shdfnd@physx@@QAE@ABVNamedAllocator@12@@Z 1000e880 f i CctCharacterController.obj
 0001:0000d8d0       ??0?$Array@VPxTriangle@physx@@VNamedAllocator@shdfnd@2@@shdfnd@physx@@QAE@ABVNamedAllocator@12@@Z 1000e8d0 f i CctCharacterController.obj
 0001:0000d920       ??0?$PxFlags@W4Enum@PxControllerCollisionFlag@physx@@E@physx@@QAE@ABV01@@Z 1000e920 f i CctCharacterController.obj
 0001:0000d940       ??0?$PxFlags@W4Enum@PxControllerCollisionFlag@physx@@E@physx@@QAE@E@Z 1000e940 f i CctCharacterController.obj
 0001:0000d960       ??0?$PxFlags@W4Enum@PxHitFlag@physx@@G@physx@@QAE@ABV01@@Z 1000e960 f i CctCharacterController.obj
 0001:0000d990       ??0?$PxFlags@W4Enum@PxHitFlag@physx@@G@physx@@QAE@G@Z 1000e990 f i CctCharacterController.obj
 0001:0000d9b0       ??0?$PxFlags@W4Enum@PxHitFlag@physx@@G@physx@@QAE@W4Enum@PxHitFlag@1@@Z 1000e9b0 f i CctCharacterController.obj
 0001:0000d9d0       ??0?$PxFlags@W4Enum@PxQueryFlag@physx@@G@physx@@QAE@ABV01@@Z 1000e9d0 f i CctCharacterController.obj
 0001:0000da00       ??0?$PxFlags@W4Enum@PxQueryFlag@physx@@G@physx@@QAE@W4Enum@PxQueryFlag@1@@Z 1000ea00 f i CctCharacterController.obj
 0001:0000da20       ??0?$PxFlags@W4Enum@PxQueryFlag@physx@@G@physx@@QAE@XZ 1000ea20 f i CctCharacterController.obj
 0001:0000da40       ??0?$PxFlags@W4Enum@PxShapeFlag@physx@@E@physx@@QAE@ABV01@@Z 1000ea40 f i CctCharacterController.obj
 0001:0000da60       ??0?$PxHitBuffer@UPxRaycastHit@physx@@@physx@@QAE@PAUPxRaycastHit@1@I@Z 1000ea60 f i CctCharacterController.obj
 0001:0000daa0       ??0?$PxHitCallback@UPxRaycastHit@physx@@@physx@@QAE@PAUPxRaycastHit@1@I@Z 1000eaa0 f i CctCharacterController.obj
 0001:0000db20       ??0CCTFilter@Cct@physx@@QAE@XZ 1000eb20 f i CctCharacterController.obj
 0001:0000db80       ??0ControllerFilter@@QAE@XZ 1000eb80 f i CctCharacterController.obj
 0001:0000dbc0       ??0DebugBox@Cm@physx@@QAE@ABVPxBounds3@2@_N@Z 1000ebc0 f i CctCharacterController.obj
 0001:0000dc10       ??0DebugBox@Cm@physx@@QAE@ABVPxVec3@2@_N@Z 1000ec10 f i CctCharacterController.obj
 0001:0000dc60       ??0Matrix34@Cm@physx@@QAE@XZ 1000ec60 f i CctCharacterController.obj
 0001:0000dcb0       ??0PxActorShape@physx@@QAE@XZ 1000ecb0 f i CctCharacterController.obj
 0001:0000dce0       ??0PxBounds3@physx@@QAE@ABVPxVec3@1@0@Z 1000ece0 f i CctCharacterController.obj
 0001:0000dd20       ??0PxBoxGeometry@physx@@QAE@VPxVec3@1@@Z 1000ed20 f i CctCharacterController.obj
 0001:0000dd60       ??0PxCapsuleGeometry@physx@@QAE@MM@Z 1000ed60 f i CctCharacterController.obj
 0001:0000ddb0       ??0PxExtendedBox@physx@@QAE@ABV01@@Z 1000edb0 f i CctCharacterController.obj
 0001:0000de30       ??0PxExtendedBox@physx@@QAE@XZ 1000ee30 f i CctCharacterController.obj
 0001:0000de70       ??0PxExtendedCapsule@physx@@QAE@XZ 1000ee70 f i CctCharacterController.obj
 0001:0000de90       ??0PxExtendedSegment@physx@@QAE@XZ 1000ee90 f i CctCharacterController.obj
 0001:0000dec0       ??0PxFilterData@physx@@QAE@XZ 1000eec0 f i CctCharacterController.obj
 0001:0000df10       ??0PxLocationHit@physx@@QAE@XZ 1000ef10 f i CctCharacterController.obj
 0001:0000df90       ??0PxMat33@physx@@QAE@ABVPxQuat@1@@Z 1000ef90 f i CctCharacterController.obj
 0001:0000e210       ??0PxMat33@physx@@QAE@W4PxIDENTITY@1@@Z 1000f210 f i CctCharacterController.obj
 0001:0000e300       ??0PxQuat@physx@@QAE@ABV01@@Z 1000f300 f i CctCharacterController.obj
 0001:0000e350       ??0PxQuat@physx@@QAE@MMMM@Z 1000f350 f i CctCharacterController.obj
 0001:0000e3b0       ??0PxQuat@physx@@QAE@W4PxIDENTITY@1@@Z 1000f3b0 f i CctCharacterController.obj
 0001:0000e430       ??0PxQuat@physx@@QAE@XZ    1000f430 f i CctCharacterController.obj
 0001:0000e450       ??0PxQueryFilterCallback@physx@@QAE@XZ 1000f450 f i CctCharacterController.obj
 0001:0000e470       ??0PxQueryFilterData@physx@@QAE@ABUPxFilterData@1@V?$PxFlags@W4Enum@PxQueryFlag@physx@@G@1@@Z 1000f470 f i CctCharacterController.obj
 0001:0000e4d0       ??0PxQueryHit@physx@@QAE@XZ 1000f4d0 f i CctCharacterController.obj
 0001:0000e500       ??0PxRaycastHit@physx@@QAE@XZ 1000f500 f i CctCharacterController.obj
 0001:0000e550       ??0PxSphereGeometry@physx@@QAE@XZ 1000f550 f i CctCharacterController.obj
 0001:0000e590       ??0PxSweepHit@physx@@QAE@XZ 1000f590 f i CctCharacterController.obj
 0001:0000e5b0       ??0PxTransform@physx@@QAE@ABVPxVec3@1@ABVPxQuat@1@@Z 1000f5b0 f i CctCharacterController.obj
 0001:0000e640       ??0PxTransform@physx@@QAE@XZ 1000f640 f i CctCharacterController.obj
 0001:0000e670       ??0PxVec3@physx@@QAE@M@Z   1000f670 f i CctCharacterController.obj
 0001:0000e6c0       ??0PxVec3@physx@@QAE@XZ    1000f6c0 f i CctCharacterController.obj
 0001:0000e6e0       ??0SIMDGuard@shdfnd@physx@@QAE@XZ 1000f6e0 f i CctCharacterController.obj
 0001:0000e710       ??0SweptContact@Cct@physx@@QAE@XZ 1000f710 f i CctCharacterController.obj
 0001:0000e740       ??1?$Array@IVNamedAllocator@shdfnd@physx@@@shdfnd@physx@@QAE@XZ 1000f740 f i CctCharacterController.obj
 0001:0000e7b0       ??1?$Array@VPxTriangle@physx@@VNamedAllocator@shdfnd@2@@shdfnd@physx@@QAE@XZ 1000f7b0 f i CctCharacterController.obj
 0001:0000e820       ??1?$PxHitBuffer@UPxRaycastHit@physx@@@physx@@UAE@XZ 1000f820 f i CctCharacterController.obj
 0001:0000e850       ??1?$PxHitCallback@UPxRaycastHit@physx@@@physx@@UAE@XZ 1000f850 f i CctCharacterController.obj
 0001:0000e870       ??1ControllerFilter@@UAE@XZ 1000f870 f i CctCharacterController.obj
 0001:0000e890       ??1PxExtendedBox@physx@@QAE@XZ 1000f890 f i CctCharacterController.obj
 0001:0000e8a0       ??1PxQueryFilterCallback@physx@@UAE@XZ 1000f8a0 f i CctCharacterController.obj
 0001:0000e8c0       ??1PxTriangle@physx@@QAE@XZ 1000f8c0 f i CctCharacterController.obj
 0001:0000e8d0       ??1SIMDGuard@shdfnd@physx@@QAE@XZ 1000f8d0 f i CctCharacterController.obj
 0001:0000e900       ??2@YAPAXIPAX@Z            1000f900 f i CctCharacterController.obj
 0001:0000e910       ??4?$PxFlags@W4Enum@PxControllerCollisionFlag@physx@@E@physx@@QAEAAV01@ABV01@@Z 1000f910 f i CctCharacterController.obj
 0001:0000e930       ??4?$PxFlags@W4Enum@PxHitFlag@physx@@G@physx@@QAEAAV01@ABV01@@Z 1000f930 f i CctCharacterController.obj
 0001:0000e960       ??4?$PxFlags@W4Enum@PxQueryFlag@physx@@G@physx@@QAEAAV01@ABV01@@Z 1000f960 f i CctCharacterController.obj
 0001:0000e990       ??4CCTParams@Cct@physx@@QAEAAU012@ABU012@@Z 1000f990 f i CctCharacterController.obj
 0001:0000ea90       ??4PxExtendedBox@physx@@QAEAAV01@ABV01@@Z 1000fa90 f i CctCharacterController.obj
 0001:0000eb10       ??4PxLocationHit@physx@@QAEAAU01@ABU01@@Z 1000fb10 f i CctCharacterController.obj
 0001:0000eba0       ??4PxRaycastHit@physx@@QAEAAU01@ABU01@@Z 1000fba0 f i CctCharacterController.obj
 0001:0000ec20       ??4PxTransform@physx@@QAEAAV01@$$QAV01@@Z 1000fc20 f i CctCharacterController.obj
 0001:0000ec60       ??4SweptContact@Cct@physx@@QAEAAU012@ABU012@@Z 1000fc60 f i CctCharacterController.obj
 0001:0000ed00       ??A?$Array@IVNamedAllocator@shdfnd@physx@@@shdfnd@physx@@QBEABII@Z 1000fd00 f i CctCharacterController.obj
 0001:0000ed70       ??A?$Array@UInternalBoxObstacle@ObstacleContext@Cct@physx@@VNamedAllocator@shdfnd@4@@shdfnd@physx@@QBEABUInternalBoxObstacle@ObstacleContext@Cct@2@I@Z 1000fd70 f i CctCharacterController.obj
 0001:0000ede0       ??A?$Array@UInternalCapsuleObstacle@ObstacleContext@Cct@physx@@VNamedAllocator@shdfnd@4@@shdfnd@physx@@QBEABUInternalCapsuleObstacle@ObstacleContext@Cct@2@I@Z 1000fde0 f i CctCharacterController.obj
 0001:0000ee50       ??A?$Array@VPxTriangle@physx@@VNamedAllocator@shdfnd@2@@shdfnd@physx@@QAEAAVPxTriangle@2@I@Z 1000fe50 f i CctCharacterController.obj
 0001:0000eec0       ??A?$Array@VPxTriangle@physx@@VNamedAllocator@shdfnd@2@@shdfnd@physx@@QBEABVPxTriangle@2@I@Z 1000fec0 f i CctCharacterController.obj
 0001:0000ef30       ??B?$PxFlags@W4Enum@PxControllerBehaviorFlag@physx@@E@physx@@QBEIXZ 1000ff30 f i CctCharacterController.obj
 0001:0000ef50       ??B?$PxFlags@W4Enum@PxControllerDebugRenderFlag@physx@@I@physx@@QBEIXZ 1000ff50 f i CctCharacterController.obj
 0001:0000ef70       ??B?$PxFlags@W4Enum@PxQueryFlag@physx@@G@physx@@QBE_NXZ 1000ff70 f i CctCharacterController.obj
 0001:0000efa0       ??B?$PxFlags@W4Enum@PxShapeFlag@physx@@E@physx@@QBE_NXZ 1000ffa0 f i CctCharacterController.obj
 0001:0000efd0       ??DPxQuat@physx@@QBE?AV01@ABV01@@Z 1000ffd0 f i CctCharacterController.obj
 0001:0000f180       ??DPxTransform@physx@@QBE?AV01@ABV01@@Z 10010180 f i CctCharacterController.obj
 0001:0000f200       ??GPxVec3@physx@@QBE?AV01@ABV01@@Z 10010200 f i CctCharacterController.obj
 0001:0000f270       ??GPxVec3@physx@@QBE?AV01@XZ 10010270 f i CctCharacterController.obj
 0001:0000f2e0       ??HPxVec3@physx@@QBE?AV01@ABV01@@Z 100102e0 f i CctCharacterController.obj
 0001:0000f350       ??I?$PxFlags@W4Enum@PxQueryFlag@physx@@G@physx@@QBE?AV01@W4Enum@PxQueryFlag@1@@Z 10010350 f i CctCharacterController.obj
 0001:0000f3a0       ??I?$PxFlags@W4Enum@PxShapeFlag@physx@@E@physx@@QBE?AV01@W4Enum@PxShapeFlag@1@@Z 100103a0 f i CctCharacterController.obj
 0001:0000f3f0       ??R?$Hash@PAVPxShape@physx@@@shdfnd@physx@@QBEIABQAVPxShape@2@@Z 100103f0 f i CctCharacterController.obj
 0001:0000f420       ??R?$Hash@PAVPxShape@physx@@@shdfnd@physx@@QBE_NABQAVPxShape@2@0@Z 10010420 f i CctCharacterController.obj
 0001:0000f460       ??RGetKey@?$HashSetBase@PAVPxShape@physx@@U?$Hash@PAVPxShape@physx@@@shdfnd@2@VAllocator@42@$0A@@internal@shdfnd@physx@@QAEABQAVPxShape@4@ABQAV54@@Z 10010460 f i CctCharacterController.obj
 0001:0000f480       ??U?$PxFlags@W4Enum@PxHitFlag@physx@@G@physx@@QBE?AV01@W4Enum@PxHitFlag@1@@Z 10010480 f i CctCharacterController.obj
 0001:0000f4d0       ??U?$PxFlags@W4Enum@PxQueryFlag@physx@@G@physx@@QBE?AV01@W4Enum@PxQueryFlag@1@@Z 100104d0 f i CctCharacterController.obj
 0001:0000f520       ??Uphysx@@YA?AV?$PxFlags@W4Enum@PxHitFlag@physx@@G@0@W4Enum@PxHitFlag@0@0@Z 10010520 f i CctCharacterController.obj
 0001:0000f560       ??Uphysx@@YA?AV?$PxFlags@W4Enum@PxQueryFlag@physx@@G@0@W4Enum@PxQueryFlag@0@0@Z 10010560 f i CctCharacterController.obj
 0001:0000f5a0       ??YPxVec3@physx@@QAEAAV01@ABV01@@Z 100105a0 f i CctCharacterController.obj
 0001:0000f610       ??ZPxVec3@physx@@QAEAAV01@ABV01@@Z 10010610 f i CctCharacterController.obj
 0001:0000f680       ??_0PxVec3@physx@@QAEAAV01@M@Z 10010680 f i CctCharacterController.obj
 0001:0000f700       ??_5?$PxFlags@W4Enum@PxControllerCollisionFlag@physx@@E@physx@@QAEAAV01@W4Enum@PxControllerCollisionFlag@1@@Z 10010700 f i CctCharacterController.obj
 0001:0000f730       ??_5?$PxFlags@W4Enum@PxHitFlag@physx@@G@physx@@QAEAAV01@W4Enum@PxHitFlag@1@@Z 10010730 f i CctCharacterController.obj
 0001:0000f760       ??_5?$PxFlags@W4Enum@PxQueryFlag@physx@@G@physx@@QAEAAV01@W4Enum@PxQueryFlag@1@@Z 10010760 f i CctCharacterController.obj
 0001:0000f790       ??_E?$PxHitBuffer@UPxRaycastHit@physx@@@physx@@UAEPAXI@Z 10010790 f i CctCharacterController.obj
 0001:0000f790       ??_G?$PxHitBuffer@UPxRaycastHit@physx@@@physx@@UAEPAXI@Z 10010790 f i CctCharacterController.obj
 0001:0000f7d0       ??_G?$PxHitCallback@UPxRaycastHit@physx@@@physx@@UAEPAXI@Z 100107d0 f i CctCharacterController.obj
 0001:0000f7d0       ??_E?$PxHitCallback@UPxRaycastHit@physx@@@physx@@UAEPAXI@Z 100107d0 f i CctCharacterController.obj
 0001:0000f810       ??_GControllerFilter@@UAEPAXI@Z 10010810 f i CctCharacterController.obj
 0001:0000f810       ??_EControllerFilter@@UAEPAXI@Z 10010810 f i CctCharacterController.obj
 0001:0000f850       ??_GPxExtendedBox@physx@@QAEPAXI@Z 10010850 f i CctCharacterController.obj
 0001:0000f890       ??_EPxQueryFilterCallback@physx@@UAEPAXI@Z 10010890 f i CctCharacterController.obj
 0001:0000f890       ??_GPxQueryFilterCallback@physx@@UAEPAXI@Z 10010890 f i CctCharacterController.obj
 0001:0000f8d0       ??_GPxTriangle@physx@@QAEPAXI@Z 100108d0 f i CctCharacterController.obj
 0001:0000f910       ?FLoad@aos@shdfnd@physx@@YA?AT__m128@@M@Z 10010910 f i CctCharacterController.obj
 0001:0000f950       ?PxAbs@physx@@YAMM@Z       10010950 f i CctCharacterController.obj
 0001:0000f970       ?PxIsFinite@physx@@YA_NM@Z 10010970 f i CctCharacterController.obj
 0001:0000f990       ?PxRecipSqrt@physx@@YAMM@Z 10010990 f i CctCharacterController.obj
 0001:0000f9b0       ?PxSqrt@physx@@YAMM@Z      100109b0 f i CctCharacterController.obj
 0001:0000f9d0       ?PxSqrt@physx@@YANN@Z      100109d0 f i CctCharacterController.obj
 0001:0000f9f0       ?V3Load@aos@shdfnd@physx@@YA?AT__m128@@M@Z 100109f0 f i CctCharacterController.obj
 0001:0000fa50       ?V4Load@aos@shdfnd@physx@@YA?AT__m128@@M@Z 10010a50 f i CctCharacterController.obj
 0001:0000fa90       ?abs@intrinsics@physx@@YAMM@Z 10010a90 f i CctCharacterController.obj
 0001:0000fab0       ?add@physx@@YAXAAUPxExtendedBounds3@1@ABU21@@Z 10010ab0 f i CctCharacterController.obj
 0001:0000fae0       ?allocate@?$Array@IVNamedAllocator@shdfnd@physx@@@shdfnd@physx@@IAEPAII@Z 10010ae0 f i CctCharacterController.obj
 0001:0000fb60       ?allocate@?$Array@PBXVNamedAllocator@shdfnd@physx@@@shdfnd@physx@@IAEPAPBXI@Z 10010b60 f i CctCharacterController.obj
 0001:0000fbe0       ?allocate@?$Array@UPxExtendedCapsule@physx@@VNamedAllocator@shdfnd@2@@shdfnd@physx@@IAEPAUPxExtendedCapsule@3@I@Z 10010be0 f i CctCharacterController.obj
 0001:0000fc60       ?allocate@?$Array@VPxExtendedBox@physx@@VNamedAllocator@shdfnd@2@@shdfnd@physx@@IAEPAVPxExtendedBox@3@I@Z 10010c60 f i CctCharacterController.obj
 0001:0000fce0       ?any@PxGeometryHolder@physx@@QBEABVPxGeometry@2@XZ 10010ce0 f i CctCharacterController.obj
 0001:0000fd00       ?begin@?$Array@IVNamedAllocator@shdfnd@physx@@@shdfnd@physx@@QAEPAIXZ 10010d00 f i CctCharacterController.obj
 0001:0000fd20       ?begin@?$Array@IVNamedAllocator@shdfnd@physx@@@shdfnd@physx@@QBEPBIXZ 10010d20 f i CctCharacterController.obj
 0001:0000fd40       ?begin@?$Array@PBXVNamedAllocator@shdfnd@physx@@@shdfnd@physx@@QAEPAPBXXZ 10010d40 f i CctCharacterController.obj
 0001:0000fd60       ?begin@?$Array@UPxExtendedCapsule@physx@@VNamedAllocator@shdfnd@2@@shdfnd@physx@@QAEPAUPxExtendedCapsule@3@XZ 10010d60 f i CctCharacterController.obj
 0001:0000fd80       ?begin@?$Array@VPxExtendedBox@physx@@VNamedAllocator@shdfnd@2@@shdfnd@physx@@QAEPAVPxExtendedBox@3@XZ 10010d80 f i CctCharacterController.obj
 0001:0000fda0       ?capacity@?$Array@IVNamedAllocator@shdfnd@physx@@@shdfnd@physx@@QBEIXZ 10010da0 f i CctCharacterController.obj
 0001:0000fdc0       ?capacity@?$Array@PBXVNamedAllocator@shdfnd@physx@@@shdfnd@physx@@QBEIXZ 10010dc0 f i CctCharacterController.obj
 0001:0000fde0       ?capacity@?$Array@UPxExtendedCapsule@physx@@VNamedAllocator@shdfnd@2@@shdfnd@physx@@QBEIXZ 10010de0 f i CctCharacterController.obj
 0001:0000fe00       ?capacity@?$Array@VPxExtendedBox@physx@@VNamedAllocator@shdfnd@2@@shdfnd@physx@@QBEIXZ 10010e00 f i CctCharacterController.obj
 0001:0000fe20       ?capacity@?$Array@VPxTriangle@physx@@VNamedAllocator@shdfnd@2@@shdfnd@physx@@QBEIXZ 10010e20 f i CctCharacterController.obj
 0001:0000fe40       ?capacityIncrement@?$Array@PBXVNamedAllocator@shdfnd@physx@@@shdfnd@physx@@IBEIXZ 10010e40 f i CctCharacterController.obj
 0001:0000fe80       ?capacityIncrement@?$Array@UPxExtendedCapsule@physx@@VNamedAllocator@shdfnd@2@@shdfnd@physx@@IBEIXZ 10010e80 f i CctCharacterController.obj
 0001:0000fec0       ?capacityIncrement@?$Array@VPxExtendedBox@physx@@VNamedAllocator@shdfnd@2@@shdfnd@physx@@IBEIXZ 10010ec0 f i CctCharacterController.obj
 0001:0000ff00       ?clear@?$Array@IVNamedAllocator@shdfnd@physx@@@shdfnd@physx@@QAEXXZ 10010f00 f i CctCharacterController.obj
 0001:0000ff40       ?clear@?$Array@VPxTriangle@physx@@VNamedAllocator@shdfnd@2@@shdfnd@physx@@QAEXXZ 10010f40 f i CctCharacterController.obj
 0001:0000ff80       ?contains@?$HashSetBase@PAVPxShape@physx@@U?$Hash@PAVPxShape@physx@@@shdfnd@2@VAllocator@42@$0A@@internal@shdfnd@physx@@QBE_NABQAVPxShape@4@@Z 10010f80 f i CctCharacterController.obj
 0001:0000ffc0       ?copy@?$Array@IVNamedAllocator@shdfnd@physx@@@shdfnd@physx@@KAXPAI0PBI@Z 10010fc0 f i CctCharacterController.obj
 0001:00010030       ?copy@?$Array@PBXVNamedAllocator@shdfnd@physx@@@shdfnd@physx@@KAXPAPBX0PBQBX@Z 10011030 f i CctCharacterController.obj
 0001:000100a0       ?copy@?$Array@UPxExtendedCapsule@physx@@VNamedAllocator@shdfnd@2@@shdfnd@physx@@KAXPAUPxExtendedCapsule@3@0PBU43@@Z 100110a0 f i CctCharacterController.obj
 0001:00010120       ?copy@?$Array@VPxExtendedBox@physx@@VNamedAllocator@shdfnd@2@@shdfnd@physx@@KAXPAVPxExtendedBox@3@0PBV43@@Z 10011120 f i CctCharacterController.obj
 0001:00010190       ?cross@PxVec3@physx@@QBE?AV12@ABV12@@Z 10011190 f i CctCharacterController.obj
 0001:00010250       ?deallocate@?$Array@IVNamedAllocator@shdfnd@physx@@@shdfnd@physx@@IAEXPAX@Z 10011250 f i CctCharacterController.obj
 0001:00010270       ?deallocate@?$Array@PBXVNamedAllocator@shdfnd@physx@@@shdfnd@physx@@IAEXPAX@Z 10011270 f i CctCharacterController.obj
 0001:00010290       ?deallocate@?$Array@UPxExtendedCapsule@physx@@VNamedAllocator@shdfnd@2@@shdfnd@physx@@IAEXPAX@Z 10011290 f i CctCharacterController.obj
 0001:000102b0       ?deallocate@?$Array@VPxExtendedBox@physx@@VNamedAllocator@shdfnd@2@@shdfnd@physx@@IAEXPAX@Z 100112b0 f i CctCharacterController.obj
 0001:000102d0       ?deallocate@?$Array@VPxTriangle@physx@@VNamedAllocator@shdfnd@2@@shdfnd@physx@@IAEXPAX@Z 100112d0 f i CctCharacterController.obj
 0001:000102f0       ?decomposeVector@shdfnd@physx@@YAXAAVPxVec3@2@0ABV32@1@Z 100112f0 f i CctCharacterController.obj
 0001:00010360       ?destroy@?$Array@IVNamedAllocator@shdfnd@physx@@@shdfnd@physx@@KAXPAI0@Z 10011360 f i CctCharacterController.obj
 0001:00010380       ?destroy@?$Array@PBXVNamedAllocator@shdfnd@physx@@@shdfnd@physx@@KAXPAPBX0@Z 10011380 f i CctCharacterController.obj
 0001:000103a0       ?destroy@?$Array@UPxExtendedCapsule@physx@@VNamedAllocator@shdfnd@2@@shdfnd@physx@@KAXPAUPxExtendedCapsule@3@0@Z 100113a0 f i CctCharacterController.obj
 0001:000103c0       ?destroy@?$Array@VPxExtendedBox@physx@@VNamedAllocator@shdfnd@2@@shdfnd@physx@@KAXPAVPxExtendedBox@3@0@Z 100113c0 f i CctCharacterController.obj
 0001:000103f0       ?destroy@?$Array@VPxTriangle@physx@@VNamedAllocator@shdfnd@2@@shdfnd@physx@@KAXPAVPxTriangle@3@0@Z 100113f0 f i CctCharacterController.obj
 0001:00010420       ?distance@physx@@YANABUPxExtendedVec3@1@0@Z 10011420 f i CctCharacterController.obj
 0001:000104c0       ?dot@PxVec3@physx@@QBEMABV12@@Z 100114c0 f i CctCharacterController.obj
 0001:00010520       ?encodeUserObject@Cct@physx@@YAIIW4UserObjectType@12@@Z 10011520 f i CctCharacterController.obj
 0001:000105d0       ?end@?$Array@IVNamedAllocator@shdfnd@physx@@@shdfnd@physx@@QAEPAIXZ 100115d0 f i CctCharacterController.obj
 0001:000105f0       ?end@?$Array@IVNamedAllocator@shdfnd@physx@@@shdfnd@physx@@QBEPBIXZ 100115f0 f i CctCharacterController.obj
 0001:00010610       ?finalizeQuery@?$PxHitCallback@UPxRaycastHit@physx@@@physx@@UAEXXZ 10011610 f i CctCharacterController.obj
 0001:00010620       ?find@?$HashBase@PAVPxShape@physx@@PAV12@U?$Hash@PAVPxShape@physx@@@shdfnd@2@UGetKey@?$HashSetBase@PAVPxShape@physx@@U?$Hash@PAVPxShape@physx@@@shdfnd@2@VAllocator@42@$0A@@internal@42@VAllocator@42@$0A@@internal@shdfnd@physx@@QBEPBQAVPxShape@4@ABQAV54@@Z 10011620 f i CctCharacterController.obj
 0001:000106f0       ?forceSize_Unsafe@?$Array@IVNamedAllocator@shdfnd@physx@@@shdfnd@physx@@QAEXI@Z 100116f0 f i CctCharacterController.obj
 0001:00010760       ?forceSize_Unsafe@?$Array@VPxTriangle@physx@@VNamedAllocator@shdfnd@2@@shdfnd@physx@@QAEXI@Z 10011760 f i CctCharacterController.obj
 0001:000107d0       ?getAnyHit@?$PxHitBuffer@UPxRaycastHit@physx@@@physx@@QBEABUPxRaycastHit@2@I@Z 100117d0 f i CctCharacterController.obj
 0001:00010890       ?getBasisVector0@PxQuat@physx@@QBE?AVPxVec3@2@XZ 10011890 f i CctCharacterController.obj
 0001:00010980       ?getCenter@PxBounds3@physx@@QBE?AVPxVec3@2@XZ 10011980 f i CctCharacterController.obj
 0001:00010a30       ?getConcreteType@PxBase@physx@@QBEGXZ 10011a30 f i CctCharacterController.obj
 0001:00010a50       ?getDimensions@PxBounds3@physx@@QBE?AVPxVec3@2@XZ 10011a50 f i CctCharacterController.obj
 0001:00010ae0       ?getExtents@PxBounds3@physx@@QBE?AVPxVec3@2@XZ 10011ae0 f i CctCharacterController.obj
 0001:00010b80       ?getGlobalPose@PxShapeExt@physx@@SA?AVPxTransform@2@ABVPxShape@2@ABVPxRigidActor@2@@Z 10011b80 f i CctCharacterController.obj
 0001:00010bd0       ?getNbTouches@?$PxHitBuffer@UPxRaycastHit@physx@@@physx@@QBEIXZ 10011bd0 f i CctCharacterController.obj
 0001:00010bf0       ?getNormalized@PxVec3@physx@@QBE?AV12@XZ 10011bf0 f i CctCharacterController.obj
 0001:00010cb0       ?getShapeGlobalPose@physx@@YA?AVPxTransform@1@ABVPxShape@1@ABVPxRigidActor@1@@Z 10011cb0 f i CctCharacterController.obj
 0001:00010ce0       ?getTouches@?$PxHitBuffer@UPxRaycastHit@physx@@@physx@@QBEPBUPxRaycastHit@2@XZ 10011ce0 f i CctCharacterController.obj
 0001:00010d00       ?getType@SweptVolume@Cct@physx@@QBE?AW4Enum@SweptVolumeType@23@XZ 10011d00 f i CctCharacterController.obj
 0001:00010d20       ?grow@?$Array@IVNamedAllocator@shdfnd@physx@@@shdfnd@physx@@IAEXI@Z 10011d20 f i CctCharacterController.obj
 0001:00010da0       ?growAndPushBack@?$Array@PBXVNamedAllocator@shdfnd@physx@@@shdfnd@physx@@IAEAAPBXABQBX@Z 10011da0 f i CctCharacterController.obj
 0001:00010f30       ?growAndPushBack@?$Array@UPxExtendedCapsule@physx@@VNamedAllocator@shdfnd@2@@shdfnd@physx@@IAEAAUPxExtendedCapsule@3@ABU43@@Z 10011f30 f i CctCharacterController.obj
 0001:000110c0       ?growAndPushBack@?$Array@VPxExtendedBox@physx@@VNamedAllocator@shdfnd@2@@shdfnd@physx@@IAEAAVPxExtendedBox@3@ABV43@@Z 100120c0 f i CctCharacterController.obj
 0001:00011240       ?hash@?$HashBase@PAVPxShape@physx@@PAV12@U?$Hash@PAVPxShape@physx@@@shdfnd@2@UGetKey@?$HashSetBase@PAVPxShape@physx@@U?$Hash@PAVPxShape@physx@@@shdfnd@2@VAllocator@42@$0A@@internal@42@VAllocator@42@$0A@@internal@shdfnd@physx@@ABEIABQAVPxShape@4@@Z 10012240 f i CctCharacterController.obj
 0001:00011270       ?hash@?$HashBase@PAVPxShape@physx@@PAV12@U?$Hash@PAVPxShape@physx@@@shdfnd@2@UGetKey@?$HashSetBase@PAVPxShape@physx@@U?$Hash@PAVPxShape@physx@@@shdfnd@2@VAllocator@42@$0A@@internal@42@VAllocator@42@$0A@@internal@shdfnd@physx@@ABEIABQAVPxShape@4@I@Z 10012270 f i CctCharacterController.obj
 0001:000112a0       ?hash@shdfnd@physx@@YAII@Z 100122a0 f i CctCharacterController.obj
 0001:00011320       ?hash@shdfnd@physx@@YAIPBX@Z 10012320 f i CctCharacterController.obj
 0001:00011340       ?intersectOBBAABB@Gu@physx@@YA_NABVBox@12@ABVPxBounds3@2@@Z 10012340 f i CctCharacterController.obj
 0001:000113b0       ?isAlmostZero@shdfnd@physx@@YA_NABVPxVec3@2@@Z 100123b0 f i CctCharacterController.obj
 0001:00011460       ?isFinite@PxBounds3@physx@@QBE_NXZ 10012460 f i CctCharacterController.obj
 0001:000114c0       ?isFinite@PxQuat@physx@@QBE_NXZ 100124c0 f i CctCharacterController.obj
 0001:00011580       ?isFinite@PxTransform@physx@@QBE_NXZ 10012580 f i CctCharacterController.obj
 0001:000115e0       ?isFinite@PxVec3@physx@@QBE_NXZ 100125e0 f i CctCharacterController.obj
 0001:00011680       ?isFinite@intrinsics@physx@@YA_NM@Z 10012680 f i CctCharacterController.obj
 0001:000116d0       ?isInUserMemory@?$Array@IVNamedAllocator@shdfnd@physx@@@shdfnd@physx@@QBEIXZ 100126d0 f i CctCharacterController.obj
 0001:000116f0       ?isInUserMemory@?$Array@PBXVNamedAllocator@shdfnd@physx@@@shdfnd@physx@@QBEIXZ 100126f0 f i CctCharacterController.obj
 0001:00011710       ?isInUserMemory@?$Array@UPxExtendedCapsule@physx@@VNamedAllocator@shdfnd@2@@shdfnd@physx@@QBEIXZ 10012710 f i CctCharacterController.obj
 0001:00011730       ?isInUserMemory@?$Array@VPxExtendedBox@physx@@VNamedAllocator@shdfnd@2@@shdfnd@physx@@QBEIXZ 10012730 f i CctCharacterController.obj
 0001:00011750       ?isInUserMemory@?$Array@VPxTriangle@physx@@VNamedAllocator@shdfnd@2@@shdfnd@physx@@QBEIXZ 10012750 f i CctCharacterController.obj
 0001:00011770       ?isInside@PxExtendedBounds3@physx@@QBE_NABU12@@Z 10012770 f i CctCharacterController.obj
 0001:00011830       ?isSane@PxQuat@physx@@QBE_NXZ 10012830 f i CctCharacterController.obj
 0001:000118c0       ?isSane@PxTransform@physx@@QBE_NXZ 100128c0 f i CctCharacterController.obj
 0001:00011910       ?isValid@PxBounds3@physx@@QBE_NXZ 10012910 f i CctCharacterController.obj
 0001:00011a30       ?isZero@PxVec3@physx@@QBE_NXZ 10012a30 f i CctCharacterController.obj
 0001:00011ab0       ?magnitude@PxQuat@physx@@QBEMXZ 10012ab0 f i CctCharacterController.obj
 0001:00011ae0       ?magnitude@PxVec3@physx@@QBEMXZ 10012ae0 f i CctCharacterController.obj
 0001:00011b10       ?magnitudeSquared@PxQuat@physx@@QBEMXZ 10012b10 f i CctCharacterController.obj
 0001:00011b90       ?magnitudeSquared@PxVec3@physx@@QBEMXZ 10012b90 f i CctCharacterController.obj
 0001:00011bf0       ?maximum@PxExtendedVec3@physx@@QAEXABU12@@Z 10012bf0 f i CctCharacterController.obj
 0001:00011c80       ?minimum@PxExtendedVec3@physx@@QAEXABU12@@Z 10012c80 f i CctCharacterController.obj
 0001:00011d10       ?normal@PxTriangle@physx@@QBEXAAVPxVec3@2@@Z 10012d10 f i CctCharacterController.obj
 0001:00011da0       ?normalize@PxVec3@physx@@QAEMXZ 10012da0 f i CctCharacterController.obj
 0001:00011df0       ?postFilter@ControllerFilter@@UAE?AW4Enum@PxQueryHitType@physx@@ABUPxFilterData@4@ABUPxQueryHit@4@@Z 10012df0 f i CctCharacterController.obj
 0001:00011eb0       ?preFilter@ControllerFilter@@UAE?AW4Enum@PxQueryHitType@physx@@ABUPxFilterData@4@PBVPxShape@4@PBVPxRigidActor@4@AAV?$PxFlags@W4Enum@PxHitFlag@physx@@G@4@@Z 10012eb0 f i CctCharacterController.obj
 0001:00011f90       ?processTouches@?$PxHitBuffer@UPxRaycastHit@physx@@@physx@@MAE_NPBUPxRaycastHit@2@I@Z 10012f90 f i CctCharacterController.obj
 0001:00011fc0       ?pushBack@?$Array@PBXVNamedAllocator@shdfnd@physx@@@shdfnd@physx@@QAEAAPBXABQBX@Z 10012fc0 f i CctCharacterController.obj
 0001:00012070       ?pushBack@?$Array@UPxExtendedCapsule@physx@@VNamedAllocator@shdfnd@2@@shdfnd@physx@@QAEAAUPxExtendedCapsule@3@ABU43@@Z 10013070 f i CctCharacterController.obj
 0001:00012130       ?pushBack@?$Array@VPxExtendedBox@physx@@VNamedAllocator@shdfnd@2@@shdfnd@physx@@QAEAAVPxExtendedBox@3@ABV43@@Z 10013130 f i CctCharacterController.obj
 0001:000121e0       ?recipSqrt@intrinsics@physx@@YAMM@Z 100131e0 f i CctCharacterController.obj
 0001:00012230       ?recreate@?$Array@IVNamedAllocator@shdfnd@physx@@@shdfnd@physx@@IAEXI@Z 10013230 f i CctCharacterController.obj
 0001:00012340       ?reserve@?$Array@IVNamedAllocator@shdfnd@physx@@@shdfnd@physx@@QAEXI@Z 10013340 f i CctCharacterController.obj
 0001:00012370       ?resetStats@SweepTest@Cct@physx@@QAEXXZ 10013370 f i CctCharacterController.obj
 0001:000123c0       ?resizeUninitialized@?$Array@IVNamedAllocator@shdfnd@physx@@@shdfnd@physx@@QAEXI@Z 100133c0 f i CctCharacterController.obj
 0001:000123f0       ?rotate@PxQuat@physx@@QBE?BVPxVec3@2@ABV32@@Z 100133f0 f i CctCharacterController.obj
 0001:000125e0       ?rotateInv@PxQuat@physx@@QBE?BVPxVec3@2@ABV32@@Z 100135e0 f i CctCharacterController.obj
 0001:000127d0       ?selectMax@intrinsics@physx@@YAMMM@Z 100137d0 f i CctCharacterController.obj
 0001:00012810       ?selectMin@intrinsics@physx@@YAMMM@Z 10013810 f i CctCharacterController.obj
 0001:00012850       ?set@PxExtendedBounds3@physx@@QAEXNNNNNN@Z 10013850 f i CctCharacterController.obj
 0001:000128e0       ?set@PxExtendedVec3@physx@@QAEXNNN@Z 100138e0 f i CctCharacterController.obj
 0001:00012920       ?setEmpty@PxExtendedBounds3@physx@@QAEXXZ 10013920 f i CctCharacterController.obj
 0001:000129b0       ?setWorldPos@SweptContact@Cct@physx@@QAEXABVPxVec3@3@ABUPxExtendedVec3@3@@Z 100139b0 f i CctCharacterController.obj
 0001:00012a20       ?size@?$Array@IVNamedAllocator@shdfnd@physx@@@shdfnd@physx@@QBEIXZ 10013a20 f i CctCharacterController.obj
 0001:00012a40       ?size@?$Array@PBXVNamedAllocator@shdfnd@physx@@@shdfnd@physx@@QBEIXZ 10013a40 f i CctCharacterController.obj
 0001:00012a60       ?size@?$Array@UInternalBoxObstacle@ObstacleContext@Cct@physx@@VNamedAllocator@shdfnd@4@@shdfnd@physx@@QBEIXZ 10013a60 f i CctCharacterController.obj
 0001:00012a80       ?size@?$Array@UInternalCapsuleObstacle@ObstacleContext@Cct@physx@@VNamedAllocator@shdfnd@4@@shdfnd@physx@@QBEIXZ 10013a80 f i CctCharacterController.obj
 0001:00012aa0       ?size@?$Array@UPxExtendedCapsule@physx@@VNamedAllocator@shdfnd@2@@shdfnd@physx@@QBEIXZ 10013aa0 f i CctCharacterController.obj
 0001:00012ac0       ?size@?$Array@VPxExtendedBox@physx@@VNamedAllocator@shdfnd@2@@shdfnd@physx@@QBEIXZ 10013ac0 f i CctCharacterController.obj
 0001:00012ae0       ?size@?$Array@VPxTriangle@physx@@VNamedAllocator@shdfnd@2@@shdfnd@physx@@QBEIXZ 10013ae0 f i CctCharacterController.obj
 0001:00012b00       ?sqrt@intrinsics@physx@@YAMM@Z 10013b00 f i CctCharacterController.obj
 0001:00012b20       ?testSlope@physx@@YA_NABVPxVec3@1@0M@Z 10013b20 f i CctCharacterController.obj
 0001:00012b80       ?toVec3@physx@@YA?AVPxVec3@1@ABUPxExtendedVec3@1@@Z 10013b80 f i CctCharacterController.obj
 0001:00012bd0       ?transform@PxTransform@physx@@QBE?AV12@ABV12@@Z 10013bd0 f i CctCharacterController.obj
 0001:00012ce0       ?transform@PxTransform@physx@@QBE?AVPxVec3@2@ABV32@@Z 10013ce0 f i CctCharacterController.obj
 0001:00012d80       ?transformInv@PxTransform@physx@@QBE?AVPxVec3@2@ABV32@@Z 10013d80 f i CctCharacterController.obj
 0001:00012e10       _fabsf                     10013e10 f i CctCharacterController.obj
 0001:00012e40       _sqrtf                     10013e40 f i CctCharacterController.obj
 0001:00012ec0       ?getSceneTimestamp@Cct@physx@@YAIPBUInternalCBData_FindTouchedGeom@12@@Z 10013ec0 f   CctCharacterControllerCallbacks.obj
 0001:00012f30       ?findTouchedGeometry@Cct@physx@@YAXPBUInternalCBData_FindTouchedGeom@12@ABUPxExtendedBounds3@2@AAV?$Array@VPxTriangle@physx@@VNamedAllocator@shdfnd@2@@shdfnd@2@AAV?$Array@IVNamedAllocator@shdfnd@physx@@@62@3ABVCCTFilter@12@ABUCCTParams@12@AAG@Z 10013f30 f   CctCharacterControllerCallbacks.obj
 0001:000133c0       ?shapeHitCallback@Cct@physx@@YAIPBUInternalCBData_OnHit@12@ABUSweptContact@12@ABVPxVec3@2@M@Z 100143c0 f   CctCharacterControllerCallbacks.obj
 0001:00013480       ?userHitCallback@Cct@physx@@YAIPBUInternalCBData_OnHit@12@ABUSweptContact@12@ABVPxVec3@2@M@Z 10014480 f   CctCharacterControllerCallbacks.obj
 0001:00017180       ??$PX_UNUSED@PBUPxOverlapHit@physx@@@@YAXABQBUPxOverlapHit@physx@@@Z 10018180 f i CctCharacterControllerCallbacks.obj
 0001:00017190       ??$reserve@VPxTriangle@physx@@VNamedAllocator@shdfnd@2@@Cct@physx@@YAPAVPxTriangle@1@AAV?$Array@VPxTriangle@physx@@VNamedAllocator@shdfnd@2@@shdfnd@1@I@Z 10018190 f i CctCharacterControllerCallbacks.obj
 0001:000171e0       ??0?$PxFlags@W4Enum@PxMeshGeometryFlag@physx@@E@physx@@QAE@E@Z 100181e0 f i CctCharacterControllerCallbacks.obj
 0001:00017200       ??0?$PxFlags@W4Enum@PxMeshGeometryFlag@physx@@E@physx@@QAE@XZ 10018200 f i CctCharacterControllerCallbacks.obj
 0001:00017220       ??0?$PxHitBuffer@UPxOverlapHit@physx@@@physx@@QAE@PAUPxOverlapHit@1@I@Z 10018220 f i CctCharacterControllerCallbacks.obj
 0001:00017260       ??0?$PxHitCallback@UPxOverlapHit@physx@@@physx@@QAE@PAUPxOverlapHit@1@I@Z 10018260 f i CctCharacterControllerCallbacks.obj
 0001:000172c0       ??0?$PxPadding@$02@physx@@QAE@XZ 100182c0 f i CctCharacterControllerCallbacks.obj
 0001:00017310       ??0PxControllerHit@physx@@QAE@XZ 10018310 f i CctCharacterControllerCallbacks.obj
 0001:00017350       ??0PxControllerObstacleHit@physx@@QAE@XZ 10018350 f i CctCharacterControllerCallbacks.obj
 0001:00017370       ??0PxControllerShapeHit@physx@@QAE@XZ 10018370 f i CctCharacterControllerCallbacks.obj
 0001:00017390       ??0PxControllersHit@physx@@QAE@XZ 10018390 f i CctCharacterControllerCallbacks.obj
 0001:000173b0       ??0PxConvexMeshGeometry@physx@@QAE@XZ 100183b0 f i CctCharacterControllerCallbacks.obj
 0001:00017400       ??0PxExtendedSphere@physx@@QAE@XZ 10018400 f i CctCharacterControllerCallbacks.obj
 0001:00017420       ??0PxHeightFieldGeometry@physx@@QAE@XZ 10018420 f i CctCharacterControllerCallbacks.obj
 0001:000174b0       ??0PxMat33@physx@@QAE@ABVPxVec3@1@00@Z 100184b0 f i CctCharacterControllerCallbacks.obj
 0001:00017500       ??0PxMat44@physx@@QAE@ABVPxMat33@1@ABVPxVec3@1@@Z 10018500 f i CctCharacterControllerCallbacks.obj
 0001:000175b0       ??0PxMeshScale@physx@@QAE@M@Z 100185b0 f i CctCharacterControllerCallbacks.obj
 0001:000175f0       ??0PxMeshScale@physx@@QAE@XZ 100185f0 f i CctCharacterControllerCallbacks.obj
 0001:00017630       ??0PxOverlapHit@physx@@QAE@XZ 10018630 f i CctCharacterControllerCallbacks.obj
 0001:00017650       ??0PxPlane@physx@@QAE@ABVPxVec3@1@M@Z 10018650 f i CctCharacterControllerCallbacks.obj
 0001:00017690       ??0PxPlane@physx@@QAE@MMMM@Z 10018690 f i CctCharacterControllerCallbacks.obj
 0001:000176f0       ??0PxQueryFilterData@physx@@QAE@$$QAU01@@Z 100186f0 f i CctCharacterControllerCallbacks.obj
 0001:00017750       ??0PxQueryFilterData@physx@@QAE@V?$PxFlags@W4Enum@PxQueryFlag@physx@@G@1@@Z 10018750 f i CctCharacterControllerCallbacks.obj
 0001:00017790       ??0PxTransform@physx@@QAE@ABVPxVec3@1@@Z 10018790 f i CctCharacterControllerCallbacks.obj
 0001:000177d0       ??0PxTriangle@physx@@QAE@ABV01@@Z 100187d0 f i CctCharacterControllerCallbacks.obj
 0001:00017870       ??0PxTriangle@physx@@QAE@ABVPxVec3@1@00@Z 10018870 f i CctCharacterControllerCallbacks.obj
 0001:000178f0       ??0PxTriangle@physx@@QAE@XZ 100188f0 f i CctCharacterControllerCallbacks.obj
 0001:00017920       ??0PxTriangleMeshGeometry@physx@@QAE@XZ 10018920 f i CctCharacterControllerCallbacks.obj
 0001:00017980       ??0PxVec4@physx@@QAE@ABVPxVec3@1@M@Z 10018980 f i CctCharacterControllerCallbacks.obj
 0001:000179d0       ??0PxVec4@physx@@QAE@MMMM@Z 100189d0 f i CctCharacterControllerCallbacks.obj
 0001:00017a30       ??0TessParams@@QAE@XZ      10018a30 f i CctCharacterControllerCallbacks.obj
 0001:00017a60       ??1?$PxHitBuffer@UPxOverlapHit@physx@@@physx@@UAE@XZ 10018a60 f i CctCharacterControllerCallbacks.obj
 0001:00017a90       ??1?$PxHitCallback@UPxOverlapHit@physx@@@physx@@UAE@XZ 10018a90 f i CctCharacterControllerCallbacks.obj
 0001:00017ab0       ??1PxExtendedSphere@physx@@QAE@XZ 10018ab0 f i CctCharacterControllerCallbacks.obj
 0001:00017ac0       ??APxVec3@physx@@QBEABMH@Z 10018ac0 f i CctCharacterControllerCallbacks.obj
 0001:00017b30       ??DPxMat33@physx@@QBE?AV01@ABV01@@Z 10018b30 f i CctCharacterControllerCallbacks.obj
 0001:00017ba0       ??DPxVec4@physx@@QBE?AV01@M@Z 10018ba0 f i CctCharacterControllerCallbacks.obj
 0001:00017c20       ??HPxVec4@physx@@QBE?AV01@ABV01@@Z 10018c20 f i CctCharacterControllerCallbacks.obj
 0001:00017cb0       ??_G?$PxHitBuffer@UPxOverlapHit@physx@@@physx@@UAEPAXI@Z 10018cb0 f i CctCharacterControllerCallbacks.obj
 0001:00017cb0       ??_E?$PxHitBuffer@UPxOverlapHit@physx@@@physx@@UAEPAXI@Z 10018cb0 f i CctCharacterControllerCallbacks.obj
 0001:00017cf0       ??_G?$PxHitCallback@UPxOverlapHit@physx@@@physx@@UAEPAXI@Z 10018cf0 f i CctCharacterControllerCallbacks.obj
 0001:00017cf0       ??_E?$PxHitCallback@UPxOverlapHit@physx@@@physx@@UAEPAXI@Z 10018cf0 f i CctCharacterControllerCallbacks.obj
 0001:00017d30       ?PxPlaneEquationFromTransform@physx@@YA?AVPxPlane@1@ABVPxTransform@1@@Z 10018d30 f i CctCharacterControllerCallbacks.obj
 0001:00017da0       ?allocate@?$Array@VPxTriangle@physx@@VNamedAllocator@shdfnd@2@@shdfnd@physx@@IAEPAVPxTriangle@3@I@Z 10018da0 f i CctCharacterControllerCallbacks.obj
 0001:00017e20       ?begin@?$Array@VPxTriangle@physx@@VNamedAllocator@shdfnd@2@@shdfnd@physx@@QAEPAVPxTriangle@3@XZ 10018e20 f i CctCharacterControllerCallbacks.obj
 0001:00017e40       ?capacityIncrement@?$Array@IVNamedAllocator@shdfnd@physx@@@shdfnd@physx@@IBEIXZ 10018e40 f i CctCharacterControllerCallbacks.obj
 0001:00017e80       ?capacityIncrement@?$Array@VPxTriangle@physx@@VNamedAllocator@shdfnd@2@@shdfnd@physx@@IBEIXZ 10018e80 f i CctCharacterControllerCallbacks.obj
 0001:00017ec0       ?centerExtents@PxBounds3@physx@@SA?AV12@ABVPxVec3@2@0@Z 10018ec0 f i CctCharacterControllerCallbacks.obj
 0001:00017f10       ?computeBasis@shdfnd@physx@@YAXABVPxVec3@2@AAV32@1@Z 10018f10 f i CctCharacterControllerCallbacks.obj
 0001:00018030       ?copy@?$Array@VPxTriangle@physx@@VNamedAllocator@shdfnd@2@@shdfnd@physx@@KAXPAVPxTriangle@3@0PBV43@@Z 10019030 f i CctCharacterControllerCallbacks.obj
 0001:000180a0       ?decodeIndex@Cct@physx@@YAII@Z 100190a0 f i CctCharacterControllerCallbacks.obj
 0001:000180b0       ?decodeType@Cct@physx@@YA?AW4UserObjectType@12@I@Z 100190b0 f i CctCharacterControllerCallbacks.obj
 0001:000180c0       ?distance@PxPlane@physx@@QBEMABVPxVec3@2@@Z 100190c0 f i CctCharacterControllerCallbacks.obj
 0001:00018100       ?finalizeQuery@?$PxHitCallback@UPxOverlapHit@physx@@@physx@@UAEXXZ 10019100 f i CctCharacterControllerCallbacks.obj
 0001:00018110       ?getAnyHit@?$PxHitBuffer@UPxOverlapHit@physx@@@physx@@QBEABUPxOverlapHit@2@I@Z 10019110 f i CctCharacterControllerCallbacks.obj
 0001:000181d0       ?getNbAnyHits@?$PxHitBuffer@UPxOverlapHit@physx@@@physx@@QBEIXZ 100191d0 f i CctCharacterControllerCallbacks.obj
 0001:00018200       ?getNbTouches@?$PxHitBuffer@UPxOverlapHit@physx@@@physx@@QBEIXZ 10019200 f i CctCharacterControllerCallbacks.obj
 0001:00018220       ?getPosition@PxMat44@physx@@QBE?AVPxVec3@2@XZ 10019220 f i CctCharacterControllerCallbacks.obj
 0001:00018250       ?getResults@PxMeshOverlapUtil@physx@@QBEPBIXZ 10019250 f i CctCharacterControllerCallbacks.obj
 0001:00018270       ?getTouches@?$PxHitBuffer@UPxOverlapHit@physx@@@physx@@QBEPBUPxOverlapHit@2@XZ 10019270 f i CctCharacterControllerCallbacks.obj
 0001:00018290       ?getTranspose@PxMat33@physx@@QBE?AV12@XZ 10019290 f i CctCharacterControllerCallbacks.obj
 0001:00018380       ?getXYZ@PxVec4@physx@@QBE?AVPxVec3@2@XZ 10019380 f i CctCharacterControllerCallbacks.obj
 0001:000183e0       ?grow@?$Array@VPxTriangle@physx@@VNamedAllocator@shdfnd@2@@shdfnd@physx@@IAEXI@Z 100193e0 f i CctCharacterControllerCallbacks.obj
 0001:00018460       ?growAndPushBack@?$Array@IVNamedAllocator@shdfnd@physx@@@shdfnd@physx@@IAEAAIABI@Z 10019460 f i CctCharacterControllerCallbacks.obj
 0001:000185f0       ?growAndPushBack@?$Array@VPxTriangle@physx@@VNamedAllocator@shdfnd@2@@shdfnd@physx@@IAEAAVPxTriangle@3@ABV43@@Z 100195f0 f i CctCharacterControllerCallbacks.obj
 0001:00018770       ?processTouches@?$PxHitBuffer@UPxOverlapHit@physx@@@physx@@MAE_NPBUPxOverlapHit@2@I@Z 10019770 f i CctCharacterControllerCallbacks.obj
 0001:000187a0       ?project@PxPlane@physx@@QBE?AVPxVec3@2@ABV32@@Z 100197a0 f i CctCharacterControllerCallbacks.obj
 0001:000187f0       ?pushBack@?$Array@IVNamedAllocator@shdfnd@physx@@@shdfnd@physx@@QAEAAIABI@Z 100197f0 f i CctCharacterControllerCallbacks.obj
 0001:000188a0       ?pushBack@?$Array@VPxTriangle@physx@@VNamedAllocator@shdfnd@2@@shdfnd@physx@@QAEAAVPxTriangle@3@ABV43@@Z 100198a0 f i CctCharacterControllerCallbacks.obj
 0001:00018950       ?recreate@?$Array@VPxTriangle@physx@@VNamedAllocator@shdfnd@2@@shdfnd@physx@@IAEXI@Z 10019950 f i CctCharacterControllerCallbacks.obj
 0001:00018a50       ?reserve@?$Array@VPxTriangle@physx@@VNamedAllocator@shdfnd@2@@shdfnd@physx@@QAEXI@Z 10019a50 f i CctCharacterControllerCallbacks.obj
 0001:00018a80       ?resizeUninitialized@?$Array@VPxTriangle@physx@@VNamedAllocator@shdfnd@2@@shdfnd@physx@@QAEXI@Z 10019a80 f i CctCharacterControllerCallbacks.obj
 0001:00018ab0       ?rotate@PxMat44@physx@@QBE?BVPxVec3@2@ABV32@@Z 10019ab0 f i CctCharacterControllerCallbacks.obj
 0001:00018b10       ?rotate@PxMat44@physx@@QBE?BVPxVec4@2@ABV32@@Z 10019b10 f i CctCharacterControllerCallbacks.obj
 0001:00018bb0       ?rotate@PxTransform@physx@@QBE?AVPxVec3@2@ABV32@@Z 10019bb0 f i CctCharacterControllerCallbacks.obj
 0001:00018c30       ?toMat33@PxMeshScale@physx@@QBE?AVPxMat33@2@XZ 10019c30 f i CctCharacterControllerCallbacks.obj
 0001:00018cf0       ?transform@PxMat33@physx@@QBE?AVPxVec3@2@ABV32@@Z 10019cf0 f i CctCharacterControllerCallbacks.obj
 0001:00018d90       ?transform@PxTransform@physx@@QBE?AVPxPlane@2@ABV32@@Z 10019d90 f i CctCharacterControllerCallbacks.obj
 0001:00018e50       _PxCreateControllerManager 10019e50 f   CctCharacterControllerManager.obj
 0001:00018ec0       ??0CharacterControllerManager@Cct@physx@@QAE@AAVPxScene@2@_N@Z 10019ec0 f   CctCharacterControllerManager.obj
 0001:00019030       ??1CharacterControllerManager@Cct@physx@@UAE@XZ 1001a030 f   CctCharacterControllerManager.obj
 0001:000190e0       ?release@CharacterControllerManager@Cct@physx@@UAEXXZ 1001a0e0 f   CctCharacterControllerManager.obj
 0001:00019180       ?getScene@CharacterControllerManager@Cct@physx@@UBEAAVPxScene@3@XZ 1001a180 f   CctCharacterControllerManager.obj
 0001:000191a0       ?getNbControllers@CharacterControllerManager@Cct@physx@@UBEIXZ 1001a1a0 f   CctCharacterControllerManager.obj
 0001:000191c0       ?getController@CharacterControllerManager@Cct@physx@@UAEPAVPxController@3@I@Z 1001a1c0 f   CctCharacterControllerManager.obj
 0001:00019270       ?createController@CharacterControllerManager@Cct@physx@@UAEPAVPxController@3@ABVPxControllerDesc@3@@Z 1001a270 f   CctCharacterControllerManager.obj
 0001:000194d0       ?purgeControllers@CharacterControllerManager@Cct@physx@@UAEXXZ 1001a4d0 f   CctCharacterControllerManager.obj
 0001:00019520       ?getRenderBuffer@CharacterControllerManager@Cct@physx@@UAEAAVPxRenderBuffer@3@XZ 1001a520 f   CctCharacterControllerManager.obj
 0001:00019590       ?setDebugRenderingFlags@CharacterControllerManager@Cct@physx@@UAEXV?$PxFlags@W4Enum@PxControllerDebugRenderFlag@physx@@I@3@@Z 1001a590 f   CctCharacterControllerManager.obj
 0001:00019600       ?getNbObstacleContexts@CharacterControllerManager@Cct@physx@@UBEIXZ 1001a600 f   CctCharacterControllerManager.obj
 0001:00019620       ?getObstacleContext@CharacterControllerManager@Cct@physx@@UAEPAVPxObstacleContext@3@I@Z 1001a620 f   CctCharacterControllerManager.obj
 0001:000196c0       ?createObstacleContext@CharacterControllerManager@Cct@physx@@UAEPAVPxObstacleContext@3@XZ 1001a6c0 f   CctCharacterControllerManager.obj
 0001:00019730       ?computeInteractions@CharacterControllerManager@Cct@physx@@UAEXMPAVPxControllerFilterCallback@3@@Z 1001a730 f   CctCharacterControllerManager.obj
 0001:00019980       ?setTessellation@CharacterControllerManager@Cct@physx@@UAEX_NM@Z 1001a980 f   CctCharacterControllerManager.obj
 0001:000199b0       ?setOverlapRecoveryModule@CharacterControllerManager@Cct@physx@@UAEX_N@Z 1001a9b0 f   CctCharacterControllerManager.obj
 0001:000199d0       ?setPreciseSweeps@CharacterControllerManager@Cct@physx@@UAEX_N@Z 1001a9d0 f   CctCharacterControllerManager.obj
 0001:000199f0       ?setPreventVerticalSlidingAgainstCeiling@CharacterControllerManager@Cct@physx@@UAEX_N@Z 1001a9f0 f   CctCharacterControllerManager.obj
 0001:00019a10       ?shiftOrigin@CharacterControllerManager@Cct@physx@@UAEXABVPxVec3@3@@Z 1001aa10 f   CctCharacterControllerManager.obj
 0001:00019b50       ?onObstacleRemoved@CharacterControllerManager@Cct@physx@@QBEXI@Z 1001ab50 f   CctCharacterControllerManager.obj
 0001:00019ba0       ?onObstacleUpdated@CharacterControllerManager@Cct@physx@@QBEXIPBVPxObstacleContext@3@@Z 1001aba0 f   CctCharacterControllerManager.obj
 0001:00019c70       ?onObstacleAdded@CharacterControllerManager@Cct@physx@@QBEXIPBVPxObstacleContext@3@@Z 1001ac70 f   CctCharacterControllerManager.obj
 0001:00019d40       ?releaseController@CharacterControllerManager@Cct@physx@@QAEXAAVPxController@3@@Z 1001ad40 f   CctCharacterControllerManager.obj
 0001:00019f00       ?getControllers@CharacterControllerManager@Cct@physx@@QAEPAPAVController@23@XZ 1001af00 f   CctCharacterControllerManager.obj
 0001:00019f20       ?releaseObstacleContext@CharacterControllerManager@Cct@physx@@QAEXAAVObstacleContext@23@@Z 1001af20 f   CctCharacterControllerManager.obj
 0001:00019fd0       ?resetObstaclesBuffers@CharacterControllerManager@Cct@physx@@QAEXXZ 1001afd0 f   CctCharacterControllerManager.obj
 0001:0001c6d0       ??$?2V?$ReflectionAllocator@VBoxController@Cct@physx@@@shdfnd@physx@@@UserAllocated@shdfnd@physx@@SAPAXIV?$ReflectionAllocator@VBoxController@Cct@physx@@@12@PBDH@Z 1001d6d0 f i CctCharacterControllerManager.obj
 0001:0001c6f0       ??$?2V?$ReflectionAllocator@VCapsuleController@Cct@physx@@@shdfnd@physx@@@UserAllocated@shdfnd@physx@@SAPAXIV?$ReflectionAllocator@VCapsuleController@Cct@physx@@@12@PBDH@Z 1001d6f0 f i CctCharacterControllerManager.obj
 0001:0001c710       ??$?2V?$ReflectionAllocator@VCharacterControllerManager@Cct@physx@@@shdfnd@physx@@@UserAllocated@shdfnd@physx@@SAPAXIV?$ReflectionAllocator@VCharacterControllerManager@Cct@physx@@@12@PBDH@Z 1001d710 f i CctCharacterControllerManager.obj
 0001:0001c730       ??$?2V?$ReflectionAllocator@VObstacleContext@Cct@physx@@@shdfnd@physx@@@UserAllocated@shdfnd@physx@@SAPAXIV?$ReflectionAllocator@VObstacleContext@Cct@physx@@@12@PBDH@Z 1001d730 f i CctCharacterControllerManager.obj
 0001:0001c750       ??$?2V?$ReflectionAllocator@VRenderBuffer@Cm@physx@@@shdfnd@physx@@@UserAllocated@shdfnd@physx@@SAPAXIV?$ReflectionAllocator@VRenderBuffer@Cm@physx@@@12@PBDH@Z 1001d750 f i CctCharacterControllerManager.obj
 0001:0001c770       ??$append@UPxDebugLine@physx@@@RenderBuffer@Cm@physx@@AAEXAAV?$Array@UPxDebugLine@physx@@VNamedAllocator@shdfnd@2@@shdfnd@2@PBUPxDebugLine@2@I@Z 1001d770 f i CctCharacterControllerManager.obj
 0001:0001c7e0       ??$append@UPxDebugPoint@physx@@@RenderBuffer@Cm@physx@@AAEXAAV?$Array@UPxDebugPoint@physx@@VNamedAllocator@shdfnd@2@@shdfnd@2@PBUPxDebugPoint@2@I@Z 1001d7e0 f i CctCharacterControllerManager.obj
 0001:0001c850       ??$append@UPxDebugText@physx@@@RenderBuffer@Cm@physx@@AAEXAAV?$Array@UPxDebugText@physx@@VNamedAllocator@shdfnd@2@@shdfnd@2@PBUPxDebugText@2@I@Z 1001d850 f i CctCharacterControllerManager.obj
 0001:0001c8c0       ??$append@UPxDebugTriangle@physx@@@RenderBuffer@Cm@physx@@AAEXAAV?$Array@UPxDebugTriangle@physx@@VNamedAllocator@shdfnd@2@@shdfnd@2@PBUPxDebugTriangle@2@I@Z 1001d8c0 f i CctCharacterControllerManager.obj
 0001:0001c930       ??$resetOrClear@V?$Array@PBXVNamedAllocator@shdfnd@physx@@@shdfnd@physx@@@@YAXAAV?$Array@PBXVNamedAllocator@shdfnd@physx@@@shdfnd@physx@@@Z 1001d930 f i CctCharacterControllerManager.obj
 0001:0001c990       ??$resetOrClear@V?$Array@UPxExtendedCapsule@physx@@VNamedAllocator@shdfnd@2@@shdfnd@physx@@@@YAXAAV?$Array@UPxExtendedCapsule@physx@@VNamedAllocator@shdfnd@2@@shdfnd@physx@@@Z 1001d990 f i CctCharacterControllerManager.obj
 0001:0001c9f0       ??$resetOrClear@V?$Array@VPxExtendedBox@physx@@VNamedAllocator@shdfnd@2@@shdfnd@physx@@@@YAXAAV?$Array@VPxExtendedBox@physx@@VNamedAllocator@shdfnd@2@@shdfnd@physx@@@Z 1001d9f0 f i CctCharacterControllerManager.obj
 0001:0001ca50       ??$swap@PAVController@Cct@physx@@@shdfnd@physx@@YAXAAPAVController@Cct@1@0@Z 1001da50 f i CctCharacterControllerManager.obj
 0001:0001ca80       ??0?$Array@DVNamedAllocator@shdfnd@physx@@@shdfnd@physx@@QAE@ABVNamedAllocator@12@@Z 1001da80 f i CctCharacterControllerManager.obj
 0001:0001cad0       ??0?$Array@PAVController@Cct@physx@@VNamedAllocator@shdfnd@3@@shdfnd@physx@@QAE@ABVNamedAllocator@12@@Z 1001dad0 f i CctCharacterControllerManager.obj
 0001:0001cb20       ??0?$Array@PAVObstacleContext@Cct@physx@@VNamedAllocator@shdfnd@3@@shdfnd@physx@@QAE@ABVNamedAllocator@12@@Z 1001db20 f i CctCharacterControllerManager.obj
 0001:0001cb70       ??0?$Array@PBXVNamedAllocator@shdfnd@physx@@@shdfnd@physx@@QAE@ABVNamedAllocator@12@@Z 1001db70 f i CctCharacterControllerManager.obj
 0001:0001cbc0       ??0?$Array@UPxDebugLine@physx@@VNamedAllocator@shdfnd@2@@shdfnd@physx@@QAE@ABVNamedAllocator@12@@Z 1001dbc0 f i CctCharacterControllerManager.obj
 0001:0001cc10       ??0?$Array@UPxDebugPoint@physx@@VNamedAllocator@shdfnd@2@@shdfnd@physx@@QAE@ABVNamedAllocator@12@@Z 1001dc10 f i CctCharacterControllerManager.obj
 0001:0001cc60       ??0?$Array@UPxDebugText@physx@@VNamedAllocator@shdfnd@2@@shdfnd@physx@@QAE@ABVNamedAllocator@12@@Z 1001dc60 f i CctCharacterControllerManager.obj
 0001:0001ccb0       ??0?$Array@UPxDebugTriangle@physx@@VNamedAllocator@shdfnd@2@@shdfnd@physx@@QAE@ABVNamedAllocator@12@@Z 1001dcb0 f i CctCharacterControllerManager.obj
 0001:0001cd00       ??0?$Array@UPxExtendedCapsule@physx@@VNamedAllocator@shdfnd@2@@shdfnd@physx@@QAE@ABVNamedAllocator@12@@Z 1001dd00 f i CctCharacterControllerManager.obj
 0001:0001cd50       ??0?$Array@VPxExtendedBox@physx@@VNamedAllocator@shdfnd@2@@shdfnd@physx@@QAE@ABVNamedAllocator@12@@Z 1001dd50 f i CctCharacterControllerManager.obj
 0001:0001cda0       ??0?$HashBase@PAVPxShape@physx@@PAV12@U?$Hash@PAVPxShape@physx@@@shdfnd@2@UGetKey@?$HashSetBase@PAVPxShape@physx@@U?$Hash@PAVPxShape@physx@@@shdfnd@2@VAllocator@42@$0A@@internal@42@VAllocator@42@$0A@@internal@shdfnd@physx@@QAE@IM@Z 1001dda0 f i CctCharacterControllerManager.obj
 0001:0001cdf0       ??0?$HashSet@PAVPxShape@physx@@U?$Hash@PAVPxShape@physx@@@shdfnd@2@VAllocator@42@@shdfnd@physx@@QAE@IM@Z 1001ddf0 f i CctCharacterControllerManager.obj
 0001:0001ce20       ??0?$HashSetBase@PAVPxShape@physx@@U?$Hash@PAVPxShape@physx@@@shdfnd@2@VAllocator@42@$0A@@internal@shdfnd@physx@@QAE@IM@Z 1001de20 f i CctCharacterControllerManager.obj
 0001:0001ce50       ??0?$PxFlags@W4Enum@PxControllerDebugRenderFlag@physx@@I@physx@@QAE@I@Z 1001de50 f i CctCharacterControllerManager.obj
 0001:0001ce70       ??0?$ReflectionAllocator@VBoxController@Cct@physx@@@shdfnd@physx@@QAE@PBD@Z 1001de70 f i CctCharacterControllerManager.obj
 0001:0001ce90       ??0?$ReflectionAllocator@VCapsuleController@Cct@physx@@@shdfnd@physx@@QAE@PBD@Z 1001de90 f i CctCharacterControllerManager.obj
 0001:0001ceb0       ??0?$ReflectionAllocator@VCharacterControllerManager@Cct@physx@@@shdfnd@physx@@QAE@PBD@Z 1001deb0 f i CctCharacterControllerManager.obj
 0001:0001ced0       ??0?$ReflectionAllocator@VObstacleContext@Cct@physx@@@shdfnd@physx@@QAE@PBD@Z 1001ded0 f i CctCharacterControllerManager.obj
 0001:0001cef0       ??0?$ReflectionAllocator@VRenderBuffer@Cm@physx@@@shdfnd@physx@@QAE@PBD@Z 1001def0 f i CctCharacterControllerManager.obj
 0001:0001cf10       ??0Axes@Gu@physx@@QAE@W4AxisOrder@12@@Z 1001df10 f i CctCharacterControllerManager.obj
 0001:0001cf60       ??0PxDebugLine@physx@@QAE@ABU01@@Z 1001df60 f i CctCharacterControllerManager.obj
 0001:0001cfc0       ??0PxDebugPoint@physx@@QAE@ABU01@@Z 1001dfc0 f i CctCharacterControllerManager.obj
 0001:0001d000       ??0PxDebugText@physx@@QAE@ABU01@@Z 1001e000 f i CctCharacterControllerManager.obj
 0001:0001d050       ??0PxDebugTriangle@physx@@QAE@ABU01@@Z 1001e050 f i CctCharacterControllerManager.obj
 0001:0001d0d0       ??0PxRenderBuffer@physx@@QAE@XZ 1001e0d0 f i CctCharacterControllerManager.obj
 0001:0001d0f0       ??0RenderBuffer@Cm@physx@@QAE@XZ 1001e0f0 f i CctCharacterControllerManager.obj
 0001:0001d210       ??1?$Array@DVNamedAllocator@shdfnd@physx@@@shdfnd@physx@@QAE@XZ 1001e210 f i CctCharacterControllerManager.obj
 0001:0001d280       ??1?$Array@PAVController@Cct@physx@@VNamedAllocator@shdfnd@3@@shdfnd@physx@@QAE@XZ 1001e280 f i CctCharacterControllerManager.obj
 0001:0001d2f0       ??1?$Array@PAVObstacleContext@Cct@physx@@VNamedAllocator@shdfnd@3@@shdfnd@physx@@QAE@XZ 1001e2f0 f i CctCharacterControllerManager.obj
 0001:0001d360       ??1?$Array@PBXVNamedAllocator@shdfnd@physx@@@shdfnd@physx@@QAE@XZ 1001e360 f i CctCharacterControllerManager.obj
 0001:0001d3d0       ??1?$Array@UPxDebugLine@physx@@VNamedAllocator@shdfnd@2@@shdfnd@physx@@QAE@XZ 1001e3d0 f i CctCharacterControllerManager.obj
 0001:0001d440       ??1?$Array@UPxDebugPoint@physx@@VNamedAllocator@shdfnd@2@@shdfnd@physx@@QAE@XZ 1001e440 f i CctCharacterControllerManager.obj
 0001:0001d4b0       ??1?$Array@UPxDebugText@physx@@VNamedAllocator@shdfnd@2@@shdfnd@physx@@QAE@XZ 1001e4b0 f i CctCharacterControllerManager.obj
 0001:0001d520       ??1?$Array@UPxDebugTriangle@physx@@VNamedAllocator@shdfnd@2@@shdfnd@physx@@QAE@XZ 1001e520 f i CctCharacterControllerManager.obj
 0001:0001d590       ??1?$Array@UPxExtendedCapsule@physx@@VNamedAllocator@shdfnd@2@@shdfnd@physx@@QAE@XZ 1001e590 f i CctCharacterControllerManager.obj
 0001:0001d600       ??1?$Array@VPxExtendedBox@physx@@VNamedAllocator@shdfnd@2@@shdfnd@physx@@QAE@XZ 1001e600 f i CctCharacterControllerManager.obj
 0001:0001d670       ??1?$HashBase@PAVPxShape@physx@@PAV12@U?$Hash@PAVPxShape@physx@@@shdfnd@2@UGetKey@?$HashSetBase@PAVPxShape@physx@@U?$Hash@PAVPxShape@physx@@@shdfnd@2@VAllocator@42@$0A@@internal@42@VAllocator@42@$0A@@internal@shdfnd@physx@@QAE@XZ 1001e670 f i CctCharacterControllerManager.obj
 0001:0001d6b0       ??1?$HashSet@PAVPxShape@physx@@U?$Hash@PAVPxShape@physx@@@shdfnd@2@VAllocator@42@@shdfnd@physx@@QAE@XZ 1001e6b0 f i CctCharacterControllerManager.obj
 0001:0001d6d0       ??1?$HashSetBase@PAVPxShape@physx@@U?$Hash@PAVPxShape@physx@@@shdfnd@2@VAllocator@42@$0A@@internal@shdfnd@physx@@QAE@XZ 1001e6d0 f i CctCharacterControllerManager.obj
 0001:0001d6f0       ??1Axes@Gu@physx@@QAE@XZ   1001e6f0 f i CctCharacterControllerManager.obj
 0001:0001d700       ??1PxRenderBuffer@physx@@UAE@XZ 1001e700 f i CctCharacterControllerManager.obj
 0001:0001d720       ??1RenderBuffer@Cm@physx@@UAE@XZ 1001e720 f i CctCharacterControllerManager.obj
 0001:0001d780       ??4?$PxFlags@W4Enum@PxControllerDebugRenderFlag@physx@@I@physx@@QAEAAV01@ABV01@@Z 1001e780 f i CctCharacterControllerManager.obj
 0001:0001d7a0       ??4PxBounds3@physx@@QAEAAV01@$$QAV01@@Z 1001e7a0 f i CctCharacterControllerManager.obj
 0001:0001d7e0       ??A?$Array@PAVController@Cct@physx@@VNamedAllocator@shdfnd@3@@shdfnd@physx@@QAEAAPAVController@Cct@2@I@Z 1001e7e0 f i CctCharacterControllerManager.obj
 0001:0001d850       ??A?$Array@PAVController@Cct@physx@@VNamedAllocator@shdfnd@3@@shdfnd@physx@@QBEABQAVController@Cct@2@I@Z 1001e850 f i CctCharacterControllerManager.obj
 0001:0001d8c0       ??A?$Array@PAVObstacleContext@Cct@physx@@VNamedAllocator@shdfnd@3@@shdfnd@physx@@QAEAAPAVObstacleContext@Cct@2@I@Z 1001e8c0 f i CctCharacterControllerManager.obj
 0001:0001d930       ??A?$Array@UPxDebugLine@physx@@VNamedAllocator@shdfnd@2@@shdfnd@physx@@QAEAAUPxDebugLine@2@I@Z 1001e930 f i CctCharacterControllerManager.obj
 0001:0001d9a0       ??A?$Array@UPxDebugPoint@physx@@VNamedAllocator@shdfnd@2@@shdfnd@physx@@QAEAAUPxDebugPoint@2@I@Z 1001e9a0 f i CctCharacterControllerManager.obj
 0001:0001da10       ??A?$Array@UPxDebugText@physx@@VNamedAllocator@shdfnd@2@@shdfnd@physx@@QAEAAUPxDebugText@2@I@Z 1001ea10 f i CctCharacterControllerManager.obj
 0001:0001da80       ??A?$Array@UPxDebugTriangle@physx@@VNamedAllocator@shdfnd@2@@shdfnd@physx@@QAEAAUPxDebugTriangle@2@I@Z 1001ea80 f i CctCharacterControllerManager.obj
 0001:0001daf0       ??APxMat33@physx@@QBEABVPxVec3@1@H@Z 1001eaf0 f i CctCharacterControllerManager.obj
 0001:0001db10       ??APxMat33@physx@@QBEABVPxVec3@1@I@Z 1001eb10 f i CctCharacterControllerManager.obj
 0001:0001db30       ??APxVec3@physx@@QBEABMI@Z 1001eb30 f i CctCharacterControllerManager.obj
 0001:0001dba0       ??B?$PxFlags@W4Enum@PxControllerDebugRenderFlag@physx@@I@physx@@QBE_NXZ 1001eba0 f i CctCharacterControllerManager.obj
 0001:0001dbd0       ??_GCharacterControllerManager@Cct@physx@@UAEPAXI@Z 1001ebd0 f i CctCharacterControllerManager.obj
 0001:0001dbd0       ??_ECharacterControllerManager@Cct@physx@@UAEPAXI@Z 1001ebd0 f i CctCharacterControllerManager.obj
 0001:0001dc30       ??_GPxRenderBuffer@physx@@UAEPAXI@Z 1001ec30 f i CctCharacterControllerManager.obj
 0001:0001dc30       ??_EPxRenderBuffer@physx@@UAEPAXI@Z 1001ec30 f i CctCharacterControllerManager.obj
 0001:0001dc70       ??_GRenderBuffer@Cm@physx@@UAEPAXI@Z 1001ec70 f i CctCharacterControllerManager.obj
 0001:0001dc70       ??_ERenderBuffer@Cm@physx@@UAEPAXI@Z 1001ec70 f i CctCharacterControllerManager.obj
 0001:0001dcd0       ?PxMemCopy@physx@@YAPAXPIAXPIBXI@Z 1001ecd0 f i CctCharacterControllerManager.obj
 0001:0001dcf0       ?PxMemSet@physx@@YAPAXPIAXHI@Z 1001ecf0 f i CctCharacterControllerManager.obj
 0001:0001dd10       ?allocate@?$Array@PAVController@Cct@physx@@VNamedAllocator@shdfnd@3@@shdfnd@physx@@IAEPAPAVController@Cct@3@I@Z 1001ed10 f i CctCharacterControllerManager.obj
 0001:0001dd90       ?allocate@?$Array@PAVObstacleContext@Cct@physx@@VNamedAllocator@shdfnd@3@@shdfnd@physx@@IAEPAPAVObstacleContext@Cct@3@I@Z 1001ed90 f i CctCharacterControllerManager.obj
 0001:0001de10       ?allocate@?$Array@UPxDebugLine@physx@@VNamedAllocator@shdfnd@2@@shdfnd@physx@@IAEPAUPxDebugLine@3@I@Z 1001ee10 f i CctCharacterControllerManager.obj
 0001:0001de90       ?allocate@?$Array@UPxDebugPoint@physx@@VNamedAllocator@shdfnd@2@@shdfnd@physx@@IAEPAUPxDebugPoint@3@I@Z 1001ee90 f i CctCharacterControllerManager.obj
 0001:0001df10       ?allocate@?$Array@UPxDebugText@physx@@VNamedAllocator@shdfnd@2@@shdfnd@physx@@IAEPAUPxDebugText@3@I@Z 1001ef10 f i CctCharacterControllerManager.obj
 0001:0001df90       ?allocate@?$Array@UPxDebugTriangle@physx@@VNamedAllocator@shdfnd@2@@shdfnd@physx@@IAEPAUPxDebugTriangle@3@I@Z 1001ef90 f i CctCharacterControllerManager.obj
 0001:0001e010       ?allocate@?$ReflectionAllocator@VBoxController@Cct@physx@@@shdfnd@physx@@QAEPAXIPBDH@Z 1001f010 f i CctCharacterControllerManager.obj
 0001:0001e070       ?allocate@?$ReflectionAllocator@VCapsuleController@Cct@physx@@@shdfnd@physx@@QAEPAXIPBDH@Z 1001f070 f i CctCharacterControllerManager.obj
 0001:0001e0d0       ?allocate@?$ReflectionAllocator@VCharacterControllerManager@Cct@physx@@@shdfnd@physx@@QAEPAXIPBDH@Z 1001f0d0 f i CctCharacterControllerManager.obj
 0001:0001e130       ?allocate@?$ReflectionAllocator@VObstacleContext@Cct@physx@@@shdfnd@physx@@QAEPAXIPBDH@Z 1001f130 f i CctCharacterControllerManager.obj
 0001:0001e190       ?allocate@?$ReflectionAllocator@VRenderBuffer@Cm@physx@@@shdfnd@physx@@QAEPAXIPBDH@Z 1001f190 f i CctCharacterControllerManager.obj
 0001:0001e1f0       ?append@RenderBuffer@Cm@physx@@UAEXABVPxRenderBuffer@3@@Z 1001f1f0 f i CctCharacterControllerManager.obj
 0001:0001e2e0       ?begin@?$Array@PAVController@Cct@physx@@VNamedAllocator@shdfnd@3@@shdfnd@physx@@QAEPAPAVController@Cct@3@XZ 1001f2e0 f i CctCharacterControllerManager.obj
 0001:0001e300       ?begin@?$Array@UPxDebugLine@physx@@VNamedAllocator@shdfnd@2@@shdfnd@physx@@QBEPBUPxDebugLine@3@XZ 1001f300 f i CctCharacterControllerManager.obj
 0001:0001e320       ?begin@?$Array@UPxDebugPoint@physx@@VNamedAllocator@shdfnd@2@@shdfnd@physx@@QBEPBUPxDebugPoint@3@XZ 1001f320 f i CctCharacterControllerManager.obj
 0001:0001e340       ?begin@?$Array@UPxDebugText@physx@@VNamedAllocator@shdfnd@2@@shdfnd@physx@@QBEPBUPxDebugText@3@XZ 1001f340 f i CctCharacterControllerManager.obj
 0001:0001e360       ?begin@?$Array@UPxDebugTriangle@physx@@VNamedAllocator@shdfnd@2@@shdfnd@physx@@QBEPBUPxDebugTriangle@3@XZ 1001f360 f i CctCharacterControllerManager.obj
 0001:0001e380       ?capacity@?$Array@DVNamedAllocator@shdfnd@physx@@@shdfnd@physx@@QBEIXZ 1001f380 f i CctCharacterControllerManager.obj
 0001:0001e3a0       ?capacity@?$Array@PAVController@Cct@physx@@VNamedAllocator@shdfnd@3@@shdfnd@physx@@QBEIXZ 1001f3a0 f i CctCharacterControllerManager.obj
 0001:0001e3c0       ?capacity@?$Array@PAVObstacleContext@Cct@physx@@VNamedAllocator@shdfnd@3@@shdfnd@physx@@QBEIXZ 1001f3c0 f i CctCharacterControllerManager.obj
 0001:0001e3e0       ?capacity@?$Array@UPxDebugLine@physx@@VNamedAllocator@shdfnd@2@@shdfnd@physx@@QBEIXZ 1001f3e0 f i CctCharacterControllerManager.obj
 0001:0001e400       ?capacity@?$Array@UPxDebugPoint@physx@@VNamedAllocator@shdfnd@2@@shdfnd@physx@@QBEIXZ 1001f400 f i CctCharacterControllerManager.obj
 0001:0001e420       ?capacity@?$Array@UPxDebugText@physx@@VNamedAllocator@shdfnd@2@@shdfnd@physx@@QBEIXZ 1001f420 f i CctCharacterControllerManager.obj
 0001:0001e440       ?capacity@?$Array@UPxDebugTriangle@physx@@VNamedAllocator@shdfnd@2@@shdfnd@physx@@QBEIXZ 1001f440 f i CctCharacterControllerManager.obj
 0001:0001e460       ?capacityIncrement@?$Array@PAVController@Cct@physx@@VNamedAllocator@shdfnd@3@@shdfnd@physx@@IBEIXZ 1001f460 f i CctCharacterControllerManager.obj
 0001:0001e4a0       ?capacityIncrement@?$Array@PAVObstacleContext@Cct@physx@@VNamedAllocator@shdfnd@3@@shdfnd@physx@@IBEIXZ 1001f4a0 f i CctCharacterControllerManager.obj
 0001:0001e4e0       ?capacityIncrement@?$Array@UPxDebugLine@physx@@VNamedAllocator@shdfnd@2@@shdfnd@physx@@IBEIXZ 1001f4e0 f i CctCharacterControllerManager.obj
 0001:0001e520       ?capacityIncrement@?$Array@UPxDebugPoint@physx@@VNamedAllocator@shdfnd@2@@shdfnd@physx@@IBEIXZ 1001f520 f i CctCharacterControllerManager.obj
 0001:0001e560       ?capacityIncrement@?$Array@UPxDebugText@physx@@VNamedAllocator@shdfnd@2@@shdfnd@physx@@IBEIXZ 1001f560 f i CctCharacterControllerManager.obj
 0001:0001e5a0       ?capacityIncrement@?$Array@UPxDebugTriangle@physx@@VNamedAllocator@shdfnd@2@@shdfnd@physx@@IBEIXZ 1001f5a0 f i CctCharacterControllerManager.obj
 0001:0001e5e0       ?clear@?$Array@DVNamedAllocator@shdfnd@physx@@@shdfnd@physx@@QAEXXZ 1001f5e0 f i CctCharacterControllerManager.obj
 0001:0001e620       ?clear@?$Array@PBXVNamedAllocator@shdfnd@physx@@@shdfnd@physx@@QAEXXZ 1001f620 f i CctCharacterControllerManager.obj
 0001:0001e660       ?clear@?$Array@UPxDebugLine@physx@@VNamedAllocator@shdfnd@2@@shdfnd@physx@@QAEXXZ 1001f660 f i CctCharacterControllerManager.obj
 0001:0001e6a0       ?clear@?$Array@UPxDebugPoint@physx@@VNamedAllocator@shdfnd@2@@shdfnd@physx@@QAEXXZ 1001f6a0 f i CctCharacterControllerManager.obj
 0001:0001e6e0       ?clear@?$Array@UPxDebugText@physx@@VNamedAllocator@shdfnd@2@@shdfnd@physx@@QAEXXZ 1001f6e0 f i CctCharacterControllerManager.obj
 0001:0001e720       ?clear@?$Array@UPxDebugTriangle@physx@@VNamedAllocator@shdfnd@2@@shdfnd@physx@@QAEXXZ 1001f720 f i CctCharacterControllerManager.obj
 0001:0001e760       ?clear@?$Array@UPxExtendedCapsule@physx@@VNamedAllocator@shdfnd@2@@shdfnd@physx@@QAEXXZ 1001f760 f i CctCharacterControllerManager.obj
 0001:0001e7a0       ?clear@?$Array@VPxExtendedBox@physx@@VNamedAllocator@shdfnd@2@@shdfnd@physx@@QAEXXZ 1001f7a0 f i CctCharacterControllerManager.obj
 0001:0001e7e0       ?clear@RenderBuffer@Cm@physx@@UAEXXZ 1001f7e0 f i CctCharacterControllerManager.obj
 0001:0001e840       ?copy@?$Array@PAVController@Cct@physx@@VNamedAllocator@shdfnd@3@@shdfnd@physx@@KAXPAPAVController@Cct@3@0PBQAV453@@Z 1001f840 f i CctCharacterControllerManager.obj
 0001:0001e8b0       ?copy@?$Array@PAVObstacleContext@Cct@physx@@VNamedAllocator@shdfnd@3@@shdfnd@physx@@KAXPAPAVObstacleContext@Cct@3@0PBQAV453@@Z 1001f8b0 f i CctCharacterControllerManager.obj
 0001:0001e920       ?copy@?$Array@UPxDebugLine@physx@@VNamedAllocator@shdfnd@2@@shdfnd@physx@@KAXPAUPxDebugLine@3@0PBU43@@Z 1001f920 f i CctCharacterControllerManager.obj
 0001:0001e990       ?copy@?$Array@UPxDebugPoint@physx@@VNamedAllocator@shdfnd@2@@shdfnd@physx@@KAXPAUPxDebugPoint@3@0PBU43@@Z 1001f990 f i CctCharacterControllerManager.obj
 0001:0001ea00       ?copy@?$Array@UPxDebugText@physx@@VNamedAllocator@shdfnd@2@@shdfnd@physx@@KAXPAUPxDebugText@3@0PBU43@@Z 1001fa00 f i CctCharacterControllerManager.obj
 0001:0001ea70       ?copy@?$Array@UPxDebugTriangle@physx@@VNamedAllocator@shdfnd@2@@shdfnd@physx@@KAXPAUPxDebugTriangle@3@0PBU43@@Z 1001fa70 f i CctCharacterControllerManager.obj
 0001:0001eae0       ?create@?$Array@PBXVNamedAllocator@shdfnd@physx@@@shdfnd@physx@@KAXPAPBX0ABQBX@Z 1001fae0 f i CctCharacterControllerManager.obj
 0001:0001eb50       ?create@?$Array@UPxExtendedCapsule@physx@@VNamedAllocator@shdfnd@2@@shdfnd@physx@@KAXPAUPxExtendedCapsule@3@0ABU43@@Z 1001fb50 f i CctCharacterControllerManager.obj
 0001:0001ebc0       ?create@?$Array@VPxExtendedBox@physx@@VNamedAllocator@shdfnd@2@@shdfnd@physx@@KAXPAVPxExtendedBox@3@0ABV43@@Z 1001fbc0 f i CctCharacterControllerManager.obj
 0001:0001ec30       ?create@?$HashBase@PAVPxShape@physx@@PAV12@U?$Hash@PAVPxShape@physx@@@shdfnd@2@UGetKey@?$HashSetBase@PAVPxShape@physx@@U?$Hash@PAVPxShape@physx@@@shdfnd@2@VAllocator@42@$0A@@internal@42@VAllocator@42@$0A@@internal@shdfnd@physx@@QAEPAPAVPxShape@4@ABQAV54@AA_N@Z 1001fc30 f i CctCharacterControllerManager.obj
 0001:0001edd0       ?createController@CharacterControllerManager@Cct@physx@@UAEPAVPxController@3@AAVPxPhysics@3@PAVPxScene@3@ABVPxControllerDesc@3@@Z 1001fdd0 f i CctCharacterControllerManager.obj
 0001:0001ee00       ?deallocate@?$Array@DVNamedAllocator@shdfnd@physx@@@shdfnd@physx@@IAEXPAX@Z 1001fe00 f i CctCharacterControllerManager.obj
 0001:0001ee20       ?deallocate@?$Array@PAVController@Cct@physx@@VNamedAllocator@shdfnd@3@@shdfnd@physx@@IAEXPAX@Z 1001fe20 f i CctCharacterControllerManager.obj
 0001:0001ee40       ?deallocate@?$Array@PAVObstacleContext@Cct@physx@@VNamedAllocator@shdfnd@3@@shdfnd@physx@@IAEXPAX@Z 1001fe40 f i CctCharacterControllerManager.obj
 0001:0001ee60       ?deallocate@?$Array@UPxDebugLine@physx@@VNamedAllocator@shdfnd@2@@shdfnd@physx@@IAEXPAX@Z 1001fe60 f i CctCharacterControllerManager.obj
 0001:0001ee80       ?deallocate@?$Array@UPxDebugPoint@physx@@VNamedAllocator@shdfnd@2@@shdfnd@physx@@IAEXPAX@Z 1001fe80 f i CctCharacterControllerManager.obj
 0001:0001eea0       ?deallocate@?$Array@UPxDebugText@physx@@VNamedAllocator@shdfnd@2@@shdfnd@physx@@IAEXPAX@Z 1001fea0 f i CctCharacterControllerManager.obj
 0001:0001eec0       ?deallocate@?$Array@UPxDebugTriangle@physx@@VNamedAllocator@shdfnd@2@@shdfnd@physx@@IAEXPAX@Z 1001fec0 f i CctCharacterControllerManager.obj
 0001:0001eee0       ?destroy@?$Array@DVNamedAllocator@shdfnd@physx@@@shdfnd@physx@@KAXPAD0@Z 1001fee0 f i CctCharacterControllerManager.obj
 0001:0001ef00       ?destroy@?$Array@PAVController@Cct@physx@@VNamedAllocator@shdfnd@3@@shdfnd@physx@@KAXPAPAVController@Cct@3@0@Z 1001ff00 f i CctCharacterControllerManager.obj
 0001:0001ef20       ?destroy@?$Array@PAVObstacleContext@Cct@physx@@VNamedAllocator@shdfnd@3@@shdfnd@physx@@KAXPAPAVObstacleContext@Cct@3@0@Z 1001ff20 f i CctCharacterControllerManager.obj
 0001:0001ef40       ?destroy@?$Array@UPxDebugLine@physx@@VNamedAllocator@shdfnd@2@@shdfnd@physx@@KAXPAUPxDebugLine@3@0@Z 1001ff40 f i CctCharacterControllerManager.obj
 0001:0001ef60       ?destroy@?$Array@UPxDebugPoint@physx@@VNamedAllocator@shdfnd@2@@shdfnd@physx@@KAXPAUPxDebugPoint@3@0@Z 1001ff60 f i CctCharacterControllerManager.obj
 0001:0001ef80       ?destroy@?$Array@UPxDebugText@physx@@VNamedAllocator@shdfnd@2@@shdfnd@physx@@KAXPAUPxDebugText@3@0@Z 1001ff80 f i CctCharacterControllerManager.obj
 0001:0001efa0       ?destroy@?$Array@UPxDebugTriangle@physx@@VNamedAllocator@shdfnd@2@@shdfnd@physx@@KAXPAUPxDebugTriangle@3@0@Z 1001ffa0 f i CctCharacterControllerManager.obj
 0001:0001efc0       ?destroy@?$HashBase@PAVPxShape@physx@@PAV12@U?$Hash@PAVPxShape@physx@@@shdfnd@2@UGetKey@?$HashSetBase@PAVPxShape@physx@@U?$Hash@PAVPxShape@physx@@@shdfnd@2@VAllocator@42@$0A@@internal@42@VAllocator@42@$0A@@internal@shdfnd@physx@@AAEXXZ 1001ffc0 f i CctCharacterControllerManager.obj
 0001:0001f030       ?end@?$Array@PAVObstacleContext@Cct@physx@@VNamedAllocator@shdfnd@3@@shdfnd@physx@@QAEPAPAVObstacleContext@Cct@3@XZ 10020030 f i CctCharacterControllerManager.obj
 0001:0001f050       ?erase@?$HashBase@PAVPxShape@physx@@PAV12@U?$Hash@PAVPxShape@physx@@@shdfnd@2@UGetKey@?$HashSetBase@PAVPxShape@physx@@U?$Hash@PAVPxShape@physx@@@shdfnd@2@VAllocator@42@$0A@@internal@42@VAllocator@42@$0A@@internal@shdfnd@physx@@QAE_NABQAVPxShape@4@@Z 10020050 f i CctCharacterControllerManager.obj
 0001:0001f170       ?erase@?$HashSetBase@PAVPxShape@physx@@U?$Hash@PAVPxShape@physx@@@shdfnd@2@VAllocator@42@$0A@@internal@shdfnd@physx@@QAE_NABQAVPxShape@4@@Z 10020170 f i CctCharacterControllerManager.obj
 0001:0001f190       ?find@?$Array@PAVObstacleContext@Cct@physx@@VNamedAllocator@shdfnd@3@@shdfnd@physx@@QAEPAPAVObstacleContext@Cct@3@ABQAV453@@Z 10020190 f i CctCharacterControllerManager.obj
 0001:0001f1f0       ?findAndReplaceWithLast@?$Array@PAVObstacleContext@Cct@physx@@VNamedAllocator@shdfnd@3@@shdfnd@physx@@QAE_NABQAVObstacleContext@Cct@3@@Z 100201f0 f i CctCharacterControllerManager.obj
 0001:0001f270       ?freeListAdd@?$HashBase@PAVPxShape@physx@@PAV12@U?$Hash@PAVPxShape@physx@@@shdfnd@2@UGetKey@?$HashSetBase@PAVPxShape@physx@@U?$Hash@PAVPxShape@physx@@@shdfnd@2@VAllocator@42@$0A@@internal@42@VAllocator@42@$0A@@internal@shdfnd@physx@@AAEXI@Z 10020270 f i CctCharacterControllerManager.obj
 0001:0001f320       ?freeListAdd@?$HashBase@PAVPxShape@physx@@PAV12@U?$Hash@PAVPxShape@physx@@@shdfnd@2@UGetKey@?$HashSetBase@PAVPxShape@physx@@U?$Hash@PAVPxShape@physx@@@shdfnd@2@VAllocator@42@$0A@@internal@42@VAllocator@42@$0A@@internal@shdfnd@physx@@AAEXII@Z 10020320 f i CctCharacterControllerManager.obj
 0001:0001f410       ?freeListEmpty@?$HashBase@PAVPxShape@physx@@PAV12@U?$Hash@PAVPxShape@physx@@@shdfnd@2@UGetKey@?$HashSetBase@PAVPxShape@physx@@U?$Hash@PAVPxShape@physx@@@shdfnd@2@VAllocator@42@$0A@@internal@42@VAllocator@42@$0A@@internal@shdfnd@physx@@ABE_NXZ 10020410 f i CctCharacterControllerManager.obj
 0001:0001f480       ?freeListGetNext@?$HashBase@PAVPxShape@physx@@PAV12@U?$Hash@PAVPxShape@physx@@@shdfnd@2@UGetKey@?$HashSetBase@PAVPxShape@physx@@U?$Hash@PAVPxShape@physx@@@shdfnd@2@VAllocator@42@$0A@@internal@42@VAllocator@42@$0A@@internal@shdfnd@physx@@AAEIXZ 10020480 f i CctCharacterControllerManager.obj
 0001:0001f590       ?getFoundation@shdfnd@physx@@YAAAVFoundation@12@XZ 10020590 f i CctCharacterControllerManager.obj
 0001:0001f5a0       ?getLines@RenderBuffer@Cm@physx@@UBEPBUPxDebugLine@3@XZ 100205a0 f i CctCharacterControllerManager.obj
 0001:0001f5c0       ?getName@?$ReflectionAllocator@VBoxController@Cct@physx@@@shdfnd@physx@@CAPBDXZ 100205c0 f i CctCharacterControllerManager.obj
 0001:0001f610       ?getName@?$ReflectionAllocator@VCapsuleController@Cct@physx@@@shdfnd@physx@@CAPBDXZ 10020610 f i CctCharacterControllerManager.obj
 0001:0001f660       ?getName@?$ReflectionAllocator@VCharacterControllerManager@Cct@physx@@@shdfnd@physx@@CAPBDXZ 10020660 f i CctCharacterControllerManager.obj
 0001:0001f6b0       ?getName@?$ReflectionAllocator@VObstacleContext@Cct@physx@@@shdfnd@physx@@CAPBDXZ 100206b0 f i CctCharacterControllerManager.obj
 0001:0001f700       ?getName@?$ReflectionAllocator@VRenderBuffer@Cm@physx@@@shdfnd@physx@@CAPBDXZ 10020700 f i CctCharacterControllerManager.obj
 0001:0001f750       ?getNbLines@RenderBuffer@Cm@physx@@UBEIXZ 10020750 f i CctCharacterControllerManager.obj
 0001:0001f770       ?getNbPoints@RenderBuffer@Cm@physx@@UBEIXZ 10020770 f i CctCharacterControllerManager.obj
 0001:0001f790       ?getNbTexts@RenderBuffer@Cm@physx@@UBEIXZ 10020790 f i CctCharacterControllerManager.obj
 0001:0001f7b0       ?getNbTriangles@RenderBuffer@Cm@physx@@UBEIXZ 100207b0 f i CctCharacterControllerManager.obj
 0001:0001f7d0       ?getPoints@RenderBuffer@Cm@physx@@UBEPBUPxDebugPoint@3@XZ 100207d0 f i CctCharacterControllerManager.obj
 0001:0001f7f0       ?getTexts@RenderBuffer@Cm@physx@@UBEPBUPxDebugText@3@XZ 100207f0 f i CctCharacterControllerManager.obj
 0001:0001f810       ?getTriangles@RenderBuffer@Cm@physx@@UBEPBUPxDebugTriangle@3@XZ 10020810 f i CctCharacterControllerManager.obj
 0001:0001f830       ?getType@PxControllerDesc@physx@@QBE?AW4Enum@PxControllerShapeType@2@XZ 10020830 f i CctCharacterControllerManager.obj
 0001:0001f850       ?grow@?$Array@PBXVNamedAllocator@shdfnd@physx@@@shdfnd@physx@@IAEXI@Z 10020850 f i CctCharacterControllerManager.obj
 0001:0001f8d0       ?grow@?$Array@UPxDebugLine@physx@@VNamedAllocator@shdfnd@2@@shdfnd@physx@@IAEXI@Z 100208d0 f i CctCharacterControllerManager.obj
 0001:0001f950       ?grow@?$Array@UPxDebugPoint@physx@@VNamedAllocator@shdfnd@2@@shdfnd@physx@@IAEXI@Z 10020950 f i CctCharacterControllerManager.obj
 0001:0001f9d0       ?grow@?$Array@UPxDebugText@physx@@VNamedAllocator@shdfnd@2@@shdfnd@physx@@IAEXI@Z 100209d0 f i CctCharacterControllerManager.obj
 0001:0001fa50       ?grow@?$Array@UPxDebugTriangle@physx@@VNamedAllocator@shdfnd@2@@shdfnd@physx@@IAEXI@Z 10020a50 f i CctCharacterControllerManager.obj
 0001:0001fad0       ?grow@?$Array@UPxExtendedCapsule@physx@@VNamedAllocator@shdfnd@2@@shdfnd@physx@@IAEXI@Z 10020ad0 f i CctCharacterControllerManager.obj
 0001:0001fb50       ?grow@?$Array@VPxExtendedBox@physx@@VNamedAllocator@shdfnd@2@@shdfnd@physx@@IAEXI@Z 10020b50 f i CctCharacterControllerManager.obj
 0001:0001fbd0       ?grow@?$HashBase@PAVPxShape@physx@@PAV12@U?$Hash@PAVPxShape@physx@@@shdfnd@2@UGetKey@?$HashSetBase@PAVPxShape@physx@@U?$Hash@PAVPxShape@physx@@@shdfnd@2@VAllocator@42@$0A@@internal@42@VAllocator@42@$0A@@internal@shdfnd@physx@@AAEXXZ 10020bd0 f i CctCharacterControllerManager.obj
 0001:0001fc70       ?growAndPushBack@?$Array@PAVController@Cct@physx@@VNamedAllocator@shdfnd@3@@shdfnd@physx@@IAEAAPAVController@Cct@3@ABQAV453@@Z 10020c70 f i CctCharacterControllerManager.obj
 0001:0001fe00       ?growAndPushBack@?$Array@PAVObstacleContext@Cct@physx@@VNamedAllocator@shdfnd@3@@shdfnd@physx@@IAEAAPAVObstacleContext@Cct@3@ABQAV453@@Z 10020e00 f i CctCharacterControllerManager.obj
 0001:0001ff90       ?growAndPushBack@?$Array@UPxDebugLine@physx@@VNamedAllocator@shdfnd@2@@shdfnd@physx@@IAEAAUPxDebugLine@3@ABU43@@Z 10020f90 f i CctCharacterControllerManager.obj
 0001:00020120       ?growAndPushBack@?$Array@UPxDebugPoint@physx@@VNamedAllocator@shdfnd@2@@shdfnd@physx@@IAEAAUPxDebugPoint@3@ABU43@@Z 10021120 f i CctCharacterControllerManager.obj
 0001:000202b0       ?growAndPushBack@?$Array@UPxDebugText@physx@@VNamedAllocator@shdfnd@2@@shdfnd@physx@@IAEAAUPxDebugText@3@ABU43@@Z 100212b0 f i CctCharacterControllerManager.obj
 0001:00020430       ?growAndPushBack@?$Array@UPxDebugTriangle@physx@@VNamedAllocator@shdfnd@2@@shdfnd@physx@@IAEAAUPxDebugTriangle@3@ABU43@@Z 10021430 f i CctCharacterControllerManager.obj
 0001:000205b0       ?init@?$HashBase@PAVPxShape@physx@@PAV12@U?$Hash@PAVPxShape@physx@@@shdfnd@2@UGetKey@?$HashSetBase@PAVPxShape@physx@@U?$Hash@PAVPxShape@physx@@@shdfnd@2@VAllocator@42@$0A@@internal@42@VAllocator@42@$0A@@internal@shdfnd@physx@@AAEXIM@Z 100215b0 f i CctCharacterControllerManager.obj
 0001:00020660       ?insert@?$HashSetBase@PAVPxShape@physx@@U?$Hash@PAVPxShape@physx@@@shdfnd@2@VAllocator@42@$0A@@internal@shdfnd@physx@@QAE_NABQAVPxShape@4@@Z 10021660 f i CctCharacterControllerManager.obj
 0001:00020700       ?isInUserMemory@?$Array@DVNamedAllocator@shdfnd@physx@@@shdfnd@physx@@QBEIXZ 10021700 f i CctCharacterControllerManager.obj
 0001:00020720       ?isInUserMemory@?$Array@PAVController@Cct@physx@@VNamedAllocator@shdfnd@3@@shdfnd@physx@@QBEIXZ 10021720 f i CctCharacterControllerManager.obj
 0001:00020740       ?isInUserMemory@?$Array@PAVObstacleContext@Cct@physx@@VNamedAllocator@shdfnd@3@@shdfnd@physx@@QBEIXZ 10021740 f i CctCharacterControllerManager.obj
 0001:00020760       ?isInUserMemory@?$Array@UPxDebugLine@physx@@VNamedAllocator@shdfnd@2@@shdfnd@physx@@QBEIXZ 10021760 f i CctCharacterControllerManager.obj
 0001:00020780       ?isInUserMemory@?$Array@UPxDebugPoint@physx@@VNamedAllocator@shdfnd@2@@shdfnd@physx@@QBEIXZ 10021780 f i CctCharacterControllerManager.obj
 0001:000207a0       ?isInUserMemory@?$Array@UPxDebugText@physx@@VNamedAllocator@shdfnd@2@@shdfnd@physx@@QBEIXZ 100217a0 f i CctCharacterControllerManager.obj
 0001:000207c0       ?isInUserMemory@?$Array@UPxDebugTriangle@physx@@VNamedAllocator@shdfnd@2@@shdfnd@physx@@QBEIXZ 100217c0 f i CctCharacterControllerManager.obj
 0001:000207e0       ?isPowerOfTwo@shdfnd@physx@@YA_NI@Z 100217e0 f i CctCharacterControllerManager.obj
 0001:00020820       ?memCopy@intrinsics@physx@@YAPAXPIAXPIBXI@Z 10021820 f i CctCharacterControllerManager.obj
 0001:00020840       ?memSet@intrinsics@physx@@YAPAXPIAXHI@Z 10021840 f i CctCharacterControllerManager.obj
 0001:00020860       ?name@type_info@@QBEPBDXZ  10021860 f i CctCharacterControllerManager.obj
 0001:00020890       ?nextPowerOfTwo@shdfnd@physx@@YAII@Z 10021890 f i CctCharacterControllerManager.obj
 0001:000208f0       ?pushBack@?$Array@PAVController@Cct@physx@@VNamedAllocator@shdfnd@3@@shdfnd@physx@@QAEAAPAVController@Cct@3@ABQAV453@@Z 100218f0 f i CctCharacterControllerManager.obj
 0001:000209a0       ?pushBack@?$Array@PAVObstacleContext@Cct@physx@@VNamedAllocator@shdfnd@3@@shdfnd@physx@@QAEAAPAVObstacleContext@Cct@3@ABQAV453@@Z 100219a0 f i CctCharacterControllerManager.obj
 0001:00020a50       ?pushBack@?$Array@UPxDebugLine@physx@@VNamedAllocator@shdfnd@2@@shdfnd@physx@@QAEAAUPxDebugLine@3@ABU43@@Z 10021a50 f i CctCharacterControllerManager.obj
 0001:00020b00       ?pushBack@?$Array@UPxDebugPoint@physx@@VNamedAllocator@shdfnd@2@@shdfnd@physx@@QAEAAUPxDebugPoint@3@ABU43@@Z 10021b00 f i CctCharacterControllerManager.obj
 0001:00020bb0       ?pushBack@?$Array@UPxDebugText@physx@@VNamedAllocator@shdfnd@2@@shdfnd@physx@@QAEAAUPxDebugText@3@ABU43@@Z 10021bb0 f i CctCharacterControllerManager.obj
 0001:00020c60       ?pushBack@?$Array@UPxDebugTriangle@physx@@VNamedAllocator@shdfnd@2@@shdfnd@physx@@QAEAAUPxDebugTriangle@3@ABU43@@Z 10021c60 f i CctCharacterControllerManager.obj
 0001:00020d10       ?recreate@?$Array@PBXVNamedAllocator@shdfnd@physx@@@shdfnd@physx@@IAEXI@Z 10021d10 f i CctCharacterControllerManager.obj
 0001:00020e20       ?recreate@?$Array@UPxDebugLine@physx@@VNamedAllocator@shdfnd@2@@shdfnd@physx@@IAEXI@Z 10021e20 f i CctCharacterControllerManager.obj
 0001:00020f30       ?recreate@?$Array@UPxDebugPoint@physx@@VNamedAllocator@shdfnd@2@@shdfnd@physx@@IAEXI@Z 10021f30 f i CctCharacterControllerManager.obj
 0001:00021040       ?recreate@?$Array@UPxDebugText@physx@@VNamedAllocator@shdfnd@2@@shdfnd@physx@@IAEXI@Z 10022040 f i CctCharacterControllerManager.obj
 0001:00021140       ?recreate@?$Array@UPxDebugTriangle@physx@@VNamedAllocator@shdfnd@2@@shdfnd@physx@@IAEXI@Z 10022140 f i CctCharacterControllerManager.obj
 0001:00021240       ?recreate@?$Array@UPxExtendedCapsule@physx@@VNamedAllocator@shdfnd@2@@shdfnd@physx@@IAEXI@Z 10022240 f i CctCharacterControllerManager.obj
 0001:00021340       ?recreate@?$Array@VPxExtendedBox@physx@@VNamedAllocator@shdfnd@2@@shdfnd@physx@@IAEXI@Z 10022340 f i CctCharacterControllerManager.obj
 0001:00021440       ?replaceWithLast@?$Array@PAVController@Cct@physx@@VNamedAllocator@shdfnd@3@@shdfnd@physx@@QAEXI@Z 10022440 f i CctCharacterControllerManager.obj
 0001:000214e0       ?replaceWithLast@?$Array@PAVObstacleContext@Cct@physx@@VNamedAllocator@shdfnd@3@@shdfnd@physx@@QAEXI@Z 100224e0 f i CctCharacterControllerManager.obj
 0001:00021580       ?replaceWithLast@?$HashBase@PAVPxShape@physx@@PAV12@U?$Hash@PAVPxShape@physx@@@shdfnd@2@UGetKey@?$HashSetBase@PAVPxShape@physx@@U?$Hash@PAVPxShape@physx@@@shdfnd@2@VAllocator@42@$0A@@internal@42@VAllocator@42@$0A@@internal@shdfnd@physx@@AAEXI@Z 10022580 f i CctCharacterControllerManager.obj
 0001:000216d0       ?reserve@?$Array@PBXVNamedAllocator@shdfnd@physx@@@shdfnd@physx@@QAEXI@Z 100226d0 f i CctCharacterControllerManager.obj
 0001:00021700       ?reserve@?$Array@UPxDebugLine@physx@@VNamedAllocator@shdfnd@2@@shdfnd@physx@@QAEXI@Z 10022700 f i CctCharacterControllerManager.obj
 0001:00021730       ?reserve@?$Array@UPxDebugPoint@physx@@VNamedAllocator@shdfnd@2@@shdfnd@physx@@QAEXI@Z 10022730 f i CctCharacterControllerManager.obj
 0001:00021760       ?reserve@?$Array@UPxDebugText@physx@@VNamedAllocator@shdfnd@2@@shdfnd@physx@@QAEXI@Z 10022760 f i CctCharacterControllerManager.obj
 0001:00021790       ?reserve@?$Array@UPxDebugTriangle@physx@@VNamedAllocator@shdfnd@2@@shdfnd@physx@@QAEXI@Z 10022790 f i CctCharacterControllerManager.obj
 0001:000217c0       ?reserve@?$Array@UPxExtendedCapsule@physx@@VNamedAllocator@shdfnd@2@@shdfnd@physx@@QAEXI@Z 100227c0 f i CctCharacterControllerManager.obj
 0001:000217f0       ?reserve@?$Array@VPxExtendedBox@physx@@VNamedAllocator@shdfnd@2@@shdfnd@physx@@QAEXI@Z 100227f0 f i CctCharacterControllerManager.obj
 0001:00021820       ?reserve@?$HashBase@PAVPxShape@physx@@PAV12@U?$Hash@PAVPxShape@physx@@@shdfnd@2@UGetKey@?$HashSetBase@PAVPxShape@physx@@U?$Hash@PAVPxShape@physx@@@shdfnd@2@VAllocator@42@$0A@@internal@42@VAllocator@42@$0A@@internal@shdfnd@physx@@QAEXI@Z 10022820 f i CctCharacterControllerManager.obj
 0001:00021850       ?reserveInternal@?$HashBase@PAVPxShape@physx@@PAV12@U?$Hash@PAVPxShape@physx@@@shdfnd@2@UGetKey@?$HashSetBase@PAVPxShape@physx@@U?$Hash@PAVPxShape@physx@@@shdfnd@2@VAllocator@42@$0A@@internal@42@VAllocator@42@$0A@@internal@shdfnd@physx@@AAEXI@Z 10022850 f i CctCharacterControllerManager.obj
 0001:00021d80       ?reset@?$Array@PBXVNamedAllocator@shdfnd@physx@@@shdfnd@physx@@QAEXXZ 10022d80 f i CctCharacterControllerManager.obj
 0001:00021dc0       ?reset@?$Array@UPxExtendedCapsule@physx@@VNamedAllocator@shdfnd@2@@shdfnd@physx@@QAEXXZ 10022dc0 f i CctCharacterControllerManager.obj
 0001:00021e10       ?reset@?$Array@VPxExtendedBox@physx@@VNamedAllocator@shdfnd@2@@shdfnd@physx@@QAEXXZ 10022e10 f i CctCharacterControllerManager.obj
 0001:00021e50       ?resize@?$Array@PBXVNamedAllocator@shdfnd@physx@@@shdfnd@physx@@QAEXIABQBX@Z 10022e50 f i CctCharacterControllerManager.obj
 0001:00021ee0       ?resize@?$Array@UPxExtendedCapsule@physx@@VNamedAllocator@shdfnd@2@@shdfnd@physx@@QAEXIABUPxExtendedCapsule@3@@Z 10022ee0 f i CctCharacterControllerManager.obj
 0001:00021f60       ?resize@?$Array@VPxExtendedBox@physx@@VNamedAllocator@shdfnd@2@@shdfnd@physx@@QAEXIABVPxExtendedBox@3@@Z 10022f60 f i CctCharacterControllerManager.obj
 0001:00021fe0       ?shift@RenderBuffer@Cm@physx@@QAEXABVPxVec3@3@@Z 10022fe0 f i CctCharacterControllerManager.obj
 0001:000221a0       ?shrink@?$Array@PBXVNamedAllocator@shdfnd@physx@@@shdfnd@physx@@QAEXXZ 100231a0 f i CctCharacterControllerManager.obj
 0001:000221c0       ?shrink@?$Array@UPxExtendedCapsule@physx@@VNamedAllocator@shdfnd@2@@shdfnd@physx@@QAEXXZ 100231c0 f i CctCharacterControllerManager.obj
 0001:000221e0       ?shrink@?$Array@VPxExtendedBox@physx@@VNamedAllocator@shdfnd@2@@shdfnd@physx@@QAEXXZ 100231e0 f i CctCharacterControllerManager.obj
 0001:00022200       ?size@?$Array@PAVController@Cct@physx@@VNamedAllocator@shdfnd@3@@shdfnd@physx@@QBEIXZ 10023200 f i CctCharacterControllerManager.obj
 0001:00022220       ?size@?$Array@PAVObstacleContext@Cct@physx@@VNamedAllocator@shdfnd@3@@shdfnd@physx@@QBEIXZ 10023220 f i CctCharacterControllerManager.obj
 0001:00022240       ?size@?$Array@UPxDebugLine@physx@@VNamedAllocator@shdfnd@2@@shdfnd@physx@@QBEIXZ 10023240 f i CctCharacterControllerManager.obj
 0001:00022260       ?size@?$Array@UPxDebugPoint@physx@@VNamedAllocator@shdfnd@2@@shdfnd@physx@@QBEIXZ 10023260 f i CctCharacterControllerManager.obj
 0001:00022280       ?size@?$Array@UPxDebugText@physx@@VNamedAllocator@shdfnd@2@@shdfnd@physx@@QBEIXZ 10023280 f i CctCharacterControllerManager.obj
 0001:000222a0       ?size@?$Array@UPxDebugTriangle@physx@@VNamedAllocator@shdfnd@2@@shdfnd@physx@@QBEIXZ 100232a0 f i CctCharacterControllerManager.obj
 0001:000222c0       ??0Controller@Cct@physx@@QAE@ABVPxControllerDesc@2@PAVPxScene@2@@Z 100232c0 f   CctController.obj
 0001:000225c0       ??1Controller@Cct@physx@@UAE@XZ 100235c0 f   CctController.obj
 0001:00022660       ?releaseInternal@Controller@Cct@physx@@QAEXXZ 10023660 f   CctController.obj
 0001:00022690       ?getInternalState@Controller@Cct@physx@@QBEXAAUPxControllerState@3@@Z 10023690 f   CctController.obj
 0001:000227b0       ?getInternalStats@Controller@Cct@physx@@QBEXAAUPxControllerStats@3@@Z 100237b0 f   CctController.obj
 0001:00022800       ?onRelease@Controller@Cct@physx@@UAEXPBVPxBase@3@PAXW4Enum@PxDeletionEventFlag@3@@Z 10023800 f   CctController.obj
 0001:000228b0       ?onOriginShift@Controller@Cct@physx@@QAEXABVPxVec3@3@@Z 100238b0 f   CctController.obj
 0001:00022930       ?setUpDirectionInternal@Controller@Cct@physx@@IAEXABVPxVec3@3@@Z 10023930 f   CctController.obj
 0001:000229f0       ?getKineShape@Controller@Cct@physx@@IBEPAVPxShape@3@XZ 100239f0 f   CctController.obj
 0001:00022a80       ?createProxyActor@Controller@Cct@physx@@IAE_NAAVPxPhysics@3@ABVPxGeometry@3@ABVPxMaterial@3@@Z 10023a80 f   CctController.obj
 0001:00022b90       ?setPos@Controller@Cct@physx@@IAE_NABUPxExtendedVec3@3@@Z 10023b90 f   CctController.obj
 0001:00022eb0       ??$PX_UNUSED@W4Enum@PxDeletionEventFlag@physx@@@@YAXABW4Enum@PxDeletionEventFlag@physx@@@Z 10023eb0 f i CctController.obj
 0001:00022ec0       ??0?$MutexT@V?$ReflectionAllocator@VMutexImpl@shdfnd@physx@@@shdfnd@physx@@@shdfnd@physx@@QAE@ABV?$ReflectionAllocator@VMutexImpl@shdfnd@physx@@@12@@Z 10023ec0 f i CctController.obj
 0001:00022f50       ??0?$PxFlags@W4Enum@PxDeletionEventFlag@physx@@E@physx@@QAE@W4Enum@PxDeletionEventFlag@1@@Z 10023f50 f i CctController.obj
 0001:00022f70       ??0?$PxFlags@W4Enum@PxShapeFlag@physx@@E@physx@@QAE@W4Enum@PxShapeFlag@1@@Z 10023f70 f i CctController.obj
 0001:00022f90       ??0?$ReflectionAllocator@VMutexImpl@shdfnd@physx@@@shdfnd@physx@@QAE@ABV012@@Z 10023f90 f i CctController.obj
 0001:00022fb0       ??0?$ReflectionAllocator@VMutexImpl@shdfnd@physx@@@shdfnd@physx@@QAE@PBD@Z 10023fb0 f i CctController.obj
 0001:00022fd0       ??0PxDeletionListener@physx@@IAE@XZ 10023fd0 f i CctController.obj
 0001:00022ff0       ??1?$MutexT@V?$ReflectionAllocator@VMutexImpl@shdfnd@physx@@@shdfnd@physx@@@shdfnd@physx@@QAE@XZ 10023ff0 f i CctController.obj
 0001:00023020       ??1PxDeletionListener@physx@@MAE@XZ 10024020 f i CctController.obj
 0001:00023040       ??8PxVec3@physx@@QBE_NABV01@@Z 10024040 f i CctController.obj
 0001:000230c0       ??B?$PxFlags@W4Enum@PxControllerCollisionFlag@physx@@E@physx@@QBEIXZ 100240c0 f i CctController.obj
 0001:000230e0       ??U?$PxFlags@W4Enum@PxShapeFlag@physx@@E@physx@@QBE?AV01@W4Enum@PxShapeFlag@1@@Z 100240e0 f i CctController.obj
 0001:00023130       ??Uphysx@@YA?AV?$PxFlags@W4Enum@PxShapeFlag@physx@@E@0@W4Enum@PxShapeFlag@0@0@Z 10024130 f i CctController.obj
 0001:00023170       ??_5?$PxFlags@W4Enum@PxShapeFlag@physx@@E@physx@@QAEAAV01@W4Enum@PxShapeFlag@1@@Z 10024170 f i CctController.obj
 0001:000231a0       ??_GController@Cct@physx@@UAEPAXI@Z 100241a0 f i CctController.obj
 0001:000231a0       ??_EController@Cct@physx@@UAEPAXI@Z 100241a0 f i CctController.obj
 0001:00023200       ??_GMutexImpl@shdfnd@physx@@QAEPAXI@Z 10024200 f i CctController.obj
 0001:00023240       ??_EPxDeletionListener@physx@@MAEPAXI@Z 10024240 f i CctController.obj
 0001:00023240       ??_GPxDeletionListener@physx@@MAEPAXI@Z 10024240 f i CctController.obj
 0001:00023280       ?allocate@?$ReflectionAllocator@VMutexImpl@shdfnd@physx@@@shdfnd@physx@@QAEPAXIPBDH@Z 10024280 f i CctController.obj
 0001:000232e0       ?createShape@PxRigidActor@physx@@QAEPAVPxShape@2@ABVPxGeometry@2@ABVPxMaterial@2@V?$PxFlags@W4Enum@PxShapeFlag@physx@@E@2@@Z 100242e0 f i CctController.obj
 0001:00023330       ?deallocate@?$ReflectionAllocator@VMutexImpl@shdfnd@physx@@@shdfnd@physx@@QAEXPAX@Z 10024330 f i CctController.obj
 0001:00023370       ?getName@?$ReflectionAllocator@VMutexImpl@shdfnd@physx@@@shdfnd@physx@@CAPBDXZ 10024370 f i CctController.obj
 0001:000233c0       ?getNormalized@PxQuat@physx@@QBE?AV12@XZ 100243c0 f i CctController.obj
 0001:00023470       ?isNormalized@PxVec3@physx@@QBE_NXZ 10024470 f i CctController.obj
 0001:00023500       ?rotationArc@shdfnd@physx@@YA?AVPxQuat@2@ABVPxVec3@2@0@Z 10024500 f i CctController.obj
 0001:00023710       ??0HandleManager@Cct@physx@@QAE@XZ 10024710 f   CctObstacleContext.obj
 0001:00023870       ??1HandleManager@Cct@physx@@QAE@XZ 10024870 f   CctObstacleContext.obj
 0001:00023890       ?Add@HandleManager@Cct@physx@@QAEIPAX@Z 10024890 f   CctObstacleContext.obj
 0001:00023bf0       ?Remove@HandleManager@Cct@physx@@QAEXI@Z 10024bf0 f   CctObstacleContext.obj
 0001:00023d40       ?GetObject@HandleManager@Cct@physx@@QBEPAXI@Z 10024d40 f   CctObstacleContext.obj
 0001:00023dd0       ?UpdateObject@HandleManager@Cct@physx@@QAE_NIPAX@Z 10024dd0 f   CctObstacleContext.obj
 0001:00023e60       ?SetupLists@HandleManager@Cct@physx@@AAE_NPAPAXPAG11@Z 10024e60 f   CctObstacleContext.obj
 0001:00023f30       ??0ObstacleContext@Cct@physx@@QAE@AAVCharacterControllerManager@12@@Z 10024f30 f   CctObstacleContext.obj
 0001:00023fb0       ??1ObstacleContext@Cct@physx@@UAE@XZ 10024fb0 f   CctObstacleContext.obj
 0001:00023ff0       ?release@ObstacleContext@Cct@physx@@UAEXXZ 10024ff0 f   CctObstacleContext.obj
 0001:00024010       ?getControllerManager@ObstacleContext@Cct@physx@@UBEAAVPxControllerManager@3@XZ 10025010 f   CctObstacleContext.obj
 0001:00024030       ?addObstacle@ObstacleContext@Cct@physx@@UAEIABVPxObstacle@3@@Z 10025030 f   CctObstacleContext.obj
 0001:00024140       ?removeObstacle@ObstacleContext@Cct@physx@@UAE_NI@Z 10025140 f   CctObstacleContext.obj
 0001:000242f0       ?updateObstacle@ObstacleContext@Cct@physx@@UAE_NIABVPxObstacle@3@@Z 100252f0 f   CctObstacleContext.obj
 0001:000244d0       ?getNbObstacles@ObstacleContext@Cct@physx@@UBEIXZ 100254d0 f   CctObstacleContext.obj
 0001:00024500       ?getObstacle@ObstacleContext@Cct@physx@@UBEPBVPxObstacle@3@I@Z 10025500 f   CctObstacleContext.obj
 0001:00024570       ?getObstacleByHandle@ObstacleContext@Cct@physx@@UBEPBVPxObstacle@3@I@Z 10025570 f   CctObstacleContext.obj
 0001:000246d0       ?raycastSingle@ObstacleContext@Cct@physx@@QBEPBVPxObstacle@3@AAUPxRaycastHit@3@ABVPxVec3@3@1MAAI@Z 100256d0 f   CctObstacleContext.obj
 0001:00024940       ?raycastSingle@ObstacleContext@Cct@physx@@QBEPBVPxObstacle@3@AAUPxRaycastHit@3@ABIABVPxVec3@3@2M@Z 10025940 f   CctObstacleContext.obj
 0001:00024b40       ?onOriginShift@ObstacleContext@Cct@physx@@QAEXABVPxVec3@3@@Z 10025b40 f   CctObstacleContext.obj
 0001:00025370       ??$PX_UNUSED@_N@@YAXAB_N@Z 10026370 f i CctObstacleContext.obj
 0001:00025380       ??0?$Array@UInternalBoxObstacle@ObstacleContext@Cct@physx@@VNamedAllocator@shdfnd@4@@shdfnd@physx@@QAE@ABVNamedAllocator@12@@Z 10026380 f i CctObstacleContext.obj
 0001:000253d0       ??0?$Array@UInternalCapsuleObstacle@ObstacleContext@Cct@physx@@VNamedAllocator@shdfnd@4@@shdfnd@physx@@QAE@ABVNamedAllocator@12@@Z 100263d0 f i CctObstacleContext.obj
 0001:00025420       ??0InternalBoxObstacle@ObstacleContext@Cct@physx@@QAE@ABU0123@@Z 10026420 f i CctObstacleContext.obj
 0001:00025460       ??0InternalBoxObstacle@ObstacleContext@Cct@physx@@QAE@IABVPxBoxObstacle@3@@Z 10026460 f i CctObstacleContext.obj
 0001:00025490       ??0InternalCapsuleObstacle@ObstacleContext@Cct@physx@@QAE@ABU0123@@Z 10026490 f i CctObstacleContext.obj
 0001:000254d0       ??0InternalCapsuleObstacle@ObstacleContext@Cct@physx@@QAE@IABVPxCapsuleObstacle@3@@Z 100264d0 f i CctObstacleContext.obj
 0001:00025500       ??0PxBoxObstacle@physx@@QAE@ABV01@@Z 10026500 f i CctObstacleContext.obj
 0001:00025540       ??0PxCapsuleObstacle@physx@@QAE@ABV01@@Z 10026540 f i CctObstacleContext.obj
 0001:00025590       ??0PxObstacle@physx@@QAE@ABV01@@Z 10026590 f i CctObstacleContext.obj
 0001:00025610       ??0PxObstacleContext@physx@@QAE@XZ 10026610 f i CctObstacleContext.obj
 0001:00025630       ??1?$Array@UInternalBoxObstacle@ObstacleContext@Cct@physx@@VNamedAllocator@shdfnd@4@@shdfnd@physx@@QAE@XZ 10026630 f i CctObstacleContext.obj
 0001:000256a0       ??1?$Array@UInternalCapsuleObstacle@ObstacleContext@Cct@physx@@VNamedAllocator@shdfnd@4@@shdfnd@physx@@QAE@XZ 100266a0 f i CctObstacleContext.obj
 0001:00025710       ??1InternalBoxObstacle@ObstacleContext@Cct@physx@@QAE@XZ 10026710 f i CctObstacleContext.obj
 0001:00025730       ??1InternalCapsuleObstacle@ObstacleContext@Cct@physx@@QAE@XZ 10026730 f i CctObstacleContext.obj
 0001:00025750       ??1PxBoxObstacle@physx@@QAE@XZ 10026750 f i CctObstacleContext.obj
 0001:00025770       ??1PxCapsuleObstacle@physx@@QAE@XZ 10026770 f i CctObstacleContext.obj
 0001:00025790       ??1PxObstacle@physx@@IAE@XZ 10026790 f i CctObstacleContext.obj
 0001:000257a0       ??1PxObstacleContext@physx@@UAE@XZ 100267a0 f i CctObstacleContext.obj
 0001:000257c0       ??4InternalBoxObstacle@ObstacleContext@Cct@physx@@QAEAAU0123@ABU0123@@Z 100267c0 f i CctObstacleContext.obj
 0001:00025800       ??4InternalCapsuleObstacle@ObstacleContext@Cct@physx@@QAEAAU0123@ABU0123@@Z 10026800 f i CctObstacleContext.obj
 0001:00025840       ??4PxBoxObstacle@physx@@QAEAAV01@ABV01@@Z 10026840 f i CctObstacleContext.obj
 0001:00025880       ??4PxCapsuleObstacle@physx@@QAEAAV01@ABV01@@Z 10026880 f i CctObstacleContext.obj
 0001:000258d0       ??4PxObstacle@physx@@QAEAAV01@ABV01@@Z 100268d0 f i CctObstacleContext.obj
 0001:00025950       ??A?$Array@UInternalBoxObstacle@ObstacleContext@Cct@physx@@VNamedAllocator@shdfnd@4@@shdfnd@physx@@QAEAAUInternalBoxObstacle@ObstacleContext@Cct@2@I@Z 10026950 f i CctObstacleContext.obj
 0001:000259c0       ??A?$Array@UInternalCapsuleObstacle@ObstacleContext@Cct@physx@@VNamedAllocator@shdfnd@4@@shdfnd@physx@@QAEAAUInternalCapsuleObstacle@ObstacleContext@Cct@2@I@Z 100269c0 f i CctObstacleContext.obj
 0001:00025a30       ??_GInternalBoxObstacle@ObstacleContext@Cct@physx@@QAEPAXI@Z 10026a30 f i CctObstacleContext.obj
 0001:00025a70       ??_GInternalCapsuleObstacle@ObstacleContext@Cct@physx@@QAEPAXI@Z 10026a70 f i CctObstacleContext.obj
 0001:00025ab0       ??_EObstacleContext@Cct@physx@@UAEPAXI@Z 10026ab0 f i CctObstacleContext.obj
 0001:00025ab0       ??_GObstacleContext@Cct@physx@@UAEPAXI@Z 10026ab0 f i CctObstacleContext.obj
 0001:00025b10       ??_EPxObstacleContext@physx@@UAEPAXI@Z 10026b10 f i CctObstacleContext.obj
 0001:00025b10       ??_GPxObstacleContext@physx@@UAEPAXI@Z 10026b10 f i CctObstacleContext.obj
 0001:00025b50       ?PxMemZero@physx@@YAPAXPIAXI@Z 10026b50 f i CctObstacleContext.obj
 0001:00025b70       ?allocate@?$Array@UInternalBoxObstacle@ObstacleContext@Cct@physx@@VNamedAllocator@shdfnd@4@@shdfnd@physx@@IAEPAUInternalBoxObstacle@ObstacleContext@Cct@3@I@Z 10026b70 f i CctObstacleContext.obj
 0001:00025bf0       ?allocate@?$Array@UInternalCapsuleObstacle@ObstacleContext@Cct@physx@@VNamedAllocator@shdfnd@4@@shdfnd@physx@@IAEPAUInternalCapsuleObstacle@ObstacleContext@Cct@3@I@Z 10026bf0 f i CctObstacleContext.obj
 0001:00025c70       ?capacity@?$Array@UInternalBoxObstacle@ObstacleContext@Cct@physx@@VNamedAllocator@shdfnd@4@@shdfnd@physx@@QBEIXZ 10026c70 f i CctObstacleContext.obj
 0001:00025c90       ?capacity@?$Array@UInternalCapsuleObstacle@ObstacleContext@Cct@physx@@VNamedAllocator@shdfnd@4@@shdfnd@physx@@QBEIXZ 10026c90 f i CctObstacleContext.obj
 0001:00025cb0       ?capacityIncrement@?$Array@UInternalBoxObstacle@ObstacleContext@Cct@physx@@VNamedAllocator@shdfnd@4@@shdfnd@physx@@IBEIXZ 10026cb0 f i CctObstacleContext.obj
 0001:00025cf0       ?capacityIncrement@?$Array@UInternalCapsuleObstacle@ObstacleContext@Cct@physx@@VNamedAllocator@shdfnd@4@@shdfnd@physx@@IBEIXZ 10026cf0 f i CctObstacleContext.obj
 0001:00025d30       ?copy@?$Array@UInternalBoxObstacle@ObstacleContext@Cct@physx@@VNamedAllocator@shdfnd@4@@shdfnd@physx@@KAXPAUInternalBoxObstacle@ObstacleContext@Cct@3@0PBU4563@@Z 10026d30 f i CctObstacleContext.obj
 0001:00025da0       ?copy@?$Array@UInternalCapsuleObstacle@ObstacleContext@Cct@physx@@VNamedAllocator@shdfnd@4@@shdfnd@physx@@KAXPAUInternalCapsuleObstacle@ObstacleContext@Cct@3@0PBU4563@@Z 10026da0 f i CctObstacleContext.obj
 0001:00025e10       ?deallocate@?$Array@UInternalBoxObstacle@ObstacleContext@Cct@physx@@VNamedAllocator@shdfnd@4@@shdfnd@physx@@IAEXPAX@Z 10026e10 f i CctObstacleContext.obj
 0001:00025e30       ?deallocate@?$Array@UInternalCapsuleObstacle@ObstacleContext@Cct@physx@@VNamedAllocator@shdfnd@4@@shdfnd@physx@@IAEXPAX@Z 10026e30 f i CctObstacleContext.obj
 0001:00025e50       ?destroy@?$Array@UInternalBoxObstacle@ObstacleContext@Cct@physx@@VNamedAllocator@shdfnd@4@@shdfnd@physx@@KAXPAUInternalBoxObstacle@ObstacleContext@Cct@3@0@Z 10026e50 f i CctObstacleContext.obj
 0001:00025e80       ?destroy@?$Array@UInternalCapsuleObstacle@ObstacleContext@Cct@physx@@VNamedAllocator@shdfnd@4@@shdfnd@physx@@KAXPAUInternalCapsuleObstacle@ObstacleContext@Cct@3@0@Z 10026e80 f i CctObstacleContext.obj
 0001:00025eb0       ?getType@PxObstacle@physx@@QBE?AW4Enum@PxGeometryType@2@XZ 10026eb0 f i CctObstacleContext.obj
 0001:00025ed0       ?growAndPushBack@?$Array@UInternalBoxObstacle@ObstacleContext@Cct@physx@@VNamedAllocator@shdfnd@4@@shdfnd@physx@@IAEAAUInternalBoxObstacle@ObstacleContext@Cct@3@ABU4563@@Z 10026ed0 f i CctObstacleContext.obj
 0001:00026050       ?growAndPushBack@?$Array@UInternalCapsuleObstacle@ObstacleContext@Cct@physx@@VNamedAllocator@shdfnd@4@@shdfnd@physx@@IAEAAUInternalCapsuleObstacle@ObstacleContext@Cct@3@ABU4563@@Z 10027050 f i CctObstacleContext.obj
 0001:000261e0       ?isInUserMemory@?$Array@UInternalBoxObstacle@ObstacleContext@Cct@physx@@VNamedAllocator@shdfnd@4@@shdfnd@physx@@QBEIXZ 100271e0 f i CctObstacleContext.obj
 0001:00026200       ?isInUserMemory@?$Array@UInternalCapsuleObstacle@ObstacleContext@Cct@physx@@VNamedAllocator@shdfnd@4@@shdfnd@physx@@QBEIXZ 10027200 f i CctObstacleContext.obj
 0001:00026220       ?memZero@intrinsics@physx@@YAPAXPIAXI@Z 10027220 f i CctObstacleContext.obj
 0001:00026240       ?pushBack@?$Array@UInternalBoxObstacle@ObstacleContext@Cct@physx@@VNamedAllocator@shdfnd@4@@shdfnd@physx@@QAEAAUInternalBoxObstacle@ObstacleContext@Cct@3@ABU4563@@Z 10027240 f i CctObstacleContext.obj
 0001:000262f0       ?pushBack@?$Array@UInternalCapsuleObstacle@ObstacleContext@Cct@physx@@VNamedAllocator@shdfnd@4@@shdfnd@physx@@QAEAAUInternalCapsuleObstacle@ObstacleContext@Cct@3@ABU4563@@Z 100272f0 f i CctObstacleContext.obj
 0001:000263a0       ?replaceWithLast@?$Array@UInternalBoxObstacle@ObstacleContext@Cct@physx@@VNamedAllocator@shdfnd@4@@shdfnd@physx@@QAEXI@Z 100273a0 f i CctObstacleContext.obj
 0001:00026460       ?replaceWithLast@?$Array@UInternalCapsuleObstacle@ObstacleContext@Cct@physx@@VNamedAllocator@shdfnd@4@@shdfnd@physx@@QAEXI@Z 10027460 f i CctObstacleContext.obj
 0001:00026520       ?to16@shdfnd@physx@@YAGI@Z 10027520 f i CctObstacleContext.obj
 0001:00026580       ??0SweptBox@Cct@physx@@QAE@XZ 10027580 f   CctSweptBox.obj
 0001:000265c0       ??1SweptBox@Cct@physx@@UAE@XZ 100275c0 f   CctSweptBox.obj
 0001:000265e0       ?computeTemporalBox@SweptBox@Cct@physx@@UBEXABVSweepTest@23@AAUPxExtendedBounds3@3@ABUPxExtendedVec3@3@ABVPxVec3@3@@Z 100275e0 f   CctSweptBox.obj
 0001:000266d0       ??$PxMax@M@physx@@YAMMM@Z  100276d0 f i CctSweptBox.obj
 0001:00026700       ??_ESweptBox@Cct@physx@@UAEPAXI@Z 10027700 f i CctSweptBox.obj
 0001:00026700       ??_GSweptBox@Cct@physx@@UAEPAXI@Z 10027700 f i CctSweptBox.obj
 0001:00026740       ??0SweptCapsule@Cct@physx@@QAE@XZ 10027740 f   CctSweptCapsule.obj
 0001:00026770       ??1SweptCapsule@Cct@physx@@UAE@XZ 10027770 f   CctSweptCapsule.obj
 0001:00026790       ?computeTemporalBox@SweptCapsule@Cct@physx@@UBEXABVSweepTest@23@AAUPxExtendedBounds3@3@ABUPxExtendedVec3@3@ABVPxVec3@3@@Z 10027790 f   CctSweptCapsule.obj
 0001:00026830       ??_GSweptCapsule@Cct@physx@@UAEPAXI@Z 10027830 f i CctSweptCapsule.obj
 0001:00026830       ??_ESweptCapsule@Cct@physx@@UAEPAXI@Z 10027830 f i CctSweptCapsule.obj
 0001:00026870       ??0SweptVolume@Cct@physx@@QAE@XZ 10027870 f   CctSweptVolume.obj
 0001:000268a0       ??1SweptVolume@Cct@physx@@UAE@XZ 100278a0 f   CctSweptVolume.obj
 0001:000268c0       ?computeTemporalBox@Cct@physx@@YAXAAUPxExtendedBounds3@2@MMMMABVPxVec3@2@ABUPxExtendedVec3@2@1@Z 100278c0 f   CctSweptVolume.obj
 0001:00026b40       ??_GSweptVolume@Cct@physx@@UAEPAXI@Z 10027b40 f i CctSweptVolume.obj
 0001:00026b40       ??_ESweptVolume@Cct@physx@@UAEPAXI@Z 10027b40 f i CctSweptVolume.obj
 0001:00026b7a       ?PxGetAssertHandler@physx@@YAAAVPxAssertHandler@1@XZ 10027b7a f   PhysX3CommonDEBUG_x86:PhysX3CommonDEBUG_x86.dll
 0001:00026b80       _PxGetFoundation           10027b80 f   PhysX3CommonDEBUG_x86:PhysX3CommonDEBUG_x86.dll
 0001:00026b86       ??0Allocator@shdfnd@physx@@QAE@PBD@Z 10027b86 f   PhysX3CommonDEBUG_x86:PhysX3CommonDEBUG_x86.dll
 0001:00026b8c       ?deallocate@Allocator@shdfnd@physx@@QAEXPAX@Z 10027b8c f   PhysX3CommonDEBUG_x86:PhysX3CommonDEBUG_x86.dll
 0001:00026b92       ?lock@MutexImpl@shdfnd@physx@@QAEXXZ 10027b92 f   PhysX3CommonDEBUG_x86:PhysX3CommonDEBUG_x86.dll
 0001:00026b98       ?unlock@MutexImpl@shdfnd@physx@@QAEXXZ 10027b98 f   PhysX3CommonDEBUG_x86:PhysX3CommonDEBUG_x86.dll
 0001:00026b9e       ?PxTransformFromSegment@physx@@YA?AVPxTransform@1@ABVPxVec3@1@0PAM@Z 10027b9e f   PhysX3CommonDEBUG_x86:PhysX3CommonDEBUG_x86.dll
 0001:00026ba4       ?sweep@PxGeometryQuery@physx@@SA_NABVPxVec3@2@MABVPxGeometry@2@ABVPxTransform@2@12AAUPxSweepHit@2@V?$PxFlags@W4Enum@PxHitFlag@physx@@G@2@M@Z 10027ba4 f   PhysX3CommonDEBUG_x86:PhysX3CommonDEBUG_x86.dll
 0001:00026baa       ?computePenetration@PxGeometryQuery@physx@@SA_NAAVPxVec3@2@AAMABVPxGeometry@2@ABVPxTransform@2@23@Z 10027baa f   PhysX3CommonDEBUG_x86:PhysX3CommonDEBUG_x86.dll
 0001:00026bb0       ??0NamedAllocator@shdfnd@physx@@QAE@PBD@Z 10027bb0 f   PhysX3CommonDEBUG_x86:PhysX3CommonDEBUG_x86.dll
 0001:00026bb6       ??0NamedAllocator@shdfnd@physx@@QAE@ABV012@@Z 10027bb6 f   PhysX3CommonDEBUG_x86:PhysX3CommonDEBUG_x86.dll
 0001:00026bbc       ??1NamedAllocator@shdfnd@physx@@QAE@XZ 10027bbc f   PhysX3CommonDEBUG_x86:PhysX3CommonDEBUG_x86.dll
 0001:00026bc2       ?allocate@NamedAllocator@shdfnd@physx@@QAEPAXIPBDH@Z 10027bc2 f   PhysX3CommonDEBUG_x86:PhysX3CommonDEBUG_x86.dll
 0001:00026bc8       ?deallocate@NamedAllocator@shdfnd@physx@@QAEXPAX@Z 10027bc8 f   PhysX3CommonDEBUG_x86:PhysX3CommonDEBUG_x86.dll
 0001:00026bce       ??0RenderOutput@Cm@physx@@QAE@AAVRenderBuffer@12@@Z 10027bce f   PhysX3CommonDEBUG_x86:PhysX3CommonDEBUG_x86.dll
 0001:00026bd4       ??6RenderOutput@Cm@physx@@QAEAAV012@I@Z 10027bd4 f   PhysX3CommonDEBUG_x86:PhysX3CommonDEBUG_x86.dll
 0001:00026bda       ??6RenderOutput@Cm@physx@@QAEAAV012@ABVPxTransform@2@@Z 10027bda f   PhysX3CommonDEBUG_x86:PhysX3CommonDEBUG_x86.dll
 0001:00026be0       ?outputCapsule@RenderOutput@Cm@physx@@QAEAAV123@MMABVMatrix34@23@@Z 10027be0 f   PhysX3CommonDEBUG_x86:PhysX3CommonDEBUG_x86.dll
 0001:00026be6       ??6Cm@physx@@YAAAVRenderOutput@01@AAV201@ABUDebugBox@01@@Z 10027be6 f   PhysX3CommonDEBUG_x86:PhysX3CommonDEBUG_x86.dll
 0001:00026bec       ??0Box@Gu@physx@@QAE@ABVPxVec3@2@0ABVPxMat33@2@@Z 10027bec f   PhysX3CommonDEBUG_x86:PhysX3CommonDEBUG_x86.dll
 0001:00026bf2       ??1Box@Gu@physx@@QAE@XZ    10027bf2 f   PhysX3CommonDEBUG_x86:PhysX3CommonDEBUG_x86.dll
 0001:00026bf8       ?intersectOBBOBB@Gu@physx@@YA_NABVPxVec3@2@0ABVPxMat33@2@001_N@Z 10027bf8 f   PhysX3CommonDEBUG_x86:PhysX3CommonDEBUG_x86.dll
 0001:00026bfe       ?distanceSegmentBoxSquared@Gu@physx@@YAMABVPxVec3@2@000ABVPxMat33@2@PAMPAV32@@Z 10027bfe f   PhysX3CommonDEBUG_x86:PhysX3CommonDEBUG_x86.dll
 0001:00026c04       ?sweep@PxMeshQuery@physx@@SA_NABVPxVec3@2@MABVPxGeometry@2@ABVPxTransform@2@IPBVPxTriangle@2@AAUPxSweepHit@2@V?$PxFlags@W4Enum@PxHitFlag@physx@@G@2@PBIM_N@Z 10027c04 f   PhysX3CommonDEBUG_x86:PhysX3CommonDEBUG_x86.dll
 0001:00026c0a       ?getTriangle@PxMeshQuery@physx@@SAXABVPxTriangleMeshGeometry@2@ABVPxTransform@2@IAAVPxTriangle@2@PAI3@Z 10027c0a f   PhysX3CommonDEBUG_x86:PhysX3CommonDEBUG_x86.dll
 0001:00026c10       ?getTriangle@PxMeshQuery@physx@@SAXABVPxHeightFieldGeometry@2@ABVPxTransform@2@IAAVPxTriangle@2@PAI3@Z 10027c10 f   PhysX3CommonDEBUG_x86:PhysX3CommonDEBUG_x86.dll
 0001:00026c16       ??6RenderOutput@Cm@physx@@QAEAAV012@W4Primitive@012@@Z 10027c16 f   PhysX3CommonDEBUG_x86:PhysX3CommonDEBUG_x86.dll
 0001:00026c1c       ??6RenderOutput@Cm@physx@@QAEAAV012@VPxVec3@2@@Z 10027c1c f   PhysX3CommonDEBUG_x86:PhysX3CommonDEBUG_x86.dll
 0001:00026c22       ?intersectTriangleBox@Gu@physx@@YAHABVPxVec3@2@0000@Z 10027c22 f   PhysX3CommonDEBUG_x86:PhysX3CommonDEBUG_x86.dll
 0001:00026c28       ?getAllocator@shdfnd@physx@@YAAAVPxAllocatorCallback@2@XZ 10027c28 f   PhysX3CommonDEBUG_x86:PhysX3CommonDEBUG_x86.dll
 0001:00026c2e       ?allocate@Allocator@shdfnd@physx@@QAEPAXIPBDH@Z 10027c2e f   PhysX3CommonDEBUG_x86:PhysX3CommonDEBUG_x86.dll
 0001:00026c34       ?getInstance@Foundation@shdfnd@physx@@SAAAV123@XZ 10027c34 f   PhysX3CommonDEBUG_x86:PhysX3CommonDEBUG_x86.dll
 0001:00026c3a       ?incRefCount@Foundation@shdfnd@physx@@SAXXZ 10027c3a f   PhysX3CommonDEBUG_x86:PhysX3CommonDEBUG_x86.dll
 0001:00026c40       ?decRefCount@Foundation@shdfnd@physx@@SAXXZ 10027c40 f   PhysX3CommonDEBUG_x86:PhysX3CommonDEBUG_x86.dll
 0001:00026c46       ?error@Foundation@shdfnd@physx@@QAAXW4Enum@PxErrorCode@3@PBDH1ZZ 10027c46 f   PhysX3CommonDEBUG_x86:PhysX3CommonDEBUG_x86.dll
 0001:00026c4c       ?CompleteBoxPruning@Gu@physx@@YA_NPBVPxBounds3@2@IAAV?$Array@IVNamedAllocator@shdfnd@physx@@@shdfnd@2@ABVAxes@12@@Z 10027c4c f   PhysX3CommonDEBUG_x86:PhysX3CommonDEBUG_x86.dll
 0001:00026c52       ?distanceSegmentSegmentSquaredOLD@Gu@physx@@YAMABVPxVec3@2@000PAM1@Z 10027c52 f   PhysX3CommonDEBUG_x86:PhysX3CommonDEBUG_x86.dll
 0001:00026c58       ??0MutexImpl@shdfnd@physx@@QAE@XZ 10027c58 f   PhysX3CommonDEBUG_x86:PhysX3CommonDEBUG_x86.dll
 0001:00026c5e       ??1MutexImpl@shdfnd@physx@@QAE@XZ 10027c5e f   PhysX3CommonDEBUG_x86:PhysX3CommonDEBUG_x86.dll
 0001:00026c64       ?getSize@MutexImpl@shdfnd@physx@@SAABIXZ 10027c64 f   PhysX3CommonDEBUG_x86:PhysX3CommonDEBUG_x86.dll
 0001:00026c6a       ?GetRaycastFuncTable@Gu@physx@@YAAAY06P6AIABVPxGeometry@2@ABVPxTransform@2@ABVPxVec3@2@2MV?$PxFlags@W4Enum@PxHitFlag@physx@@G@2@IPIAUPxRaycastHit@2@_NP6A_NAAU72@PAX@Z7@ZXZ 10027c6a f   PhysX3CommonDEBUG_x86:PhysX3CommonDEBUG_x86.dll
 0001:00026c70       ??0PxMeshOverlapUtil@physx@@QAE@XZ 10027c70 f   PhysX3ExtensionsDEBUG:ExtTriangleMeshExt.obj
 0001:00026cb0       ??1PxMeshOverlapUtil@physx@@QAE@XZ 10027cb0 f   PhysX3ExtensionsDEBUG:ExtTriangleMeshExt.obj
 0001:00026cf0       ?findOverlap@PxMeshOverlapUtil@physx@@QAEIABVPxGeometry@2@ABVPxTransform@2@ABVPxTriangleMeshGeometry@2@1@Z 10027cf0 f   PhysX3ExtensionsDEBUG:ExtTriangleMeshExt.obj
 0001:00026ea0       ?findOverlap@PxMeshOverlapUtil@physx@@QAEIABVPxGeometry@2@ABVPxTransform@2@ABVPxHeightFieldGeometry@2@1@Z 10027ea0 f   PhysX3ExtensionsDEBUG:ExtTriangleMeshExt.obj
 0001:00026f90       ?PxComputeMeshPenetration@physx@@YA?AVPxVec3@1@IABVPxGeometry@1@ABVPxTransform@1@ABVPxTriangleMeshGeometry@1@1AAI@Z 10027f90 f   PhysX3ExtensionsDEBUG:ExtTriangleMeshExt.obj
 0001:00027090       ?PxComputeHeightFieldPenetration@physx@@YA?AVPxVec3@1@IABVPxGeometry@1@ABVPxTransform@1@ABVPxHeightFieldGeometry@1@1AAI@Z 10028090 f   PhysX3ExtensionsDEBUG:ExtTriangleMeshExt.obj
 0001:000272d0       ??0PxTransform@physx@@QAE@ABV01@@Z 100282d0 f i PhysX3ExtensionsDEBUG:ExtTriangleMeshExt.obj
 0001:00027310       ?updateMassAndInertia@PxRigidBodyExt@physx@@SA_NAAVPxRigidBody@2@PBMIPBVPxVec3@2@_N@Z 10028310 f   PhysX3ExtensionsDEBUG:ExtRigidBodyExt.obj
 0001:00027340       ?updateMassAndInertia@PxRigidBodyExt@physx@@SA_NAAVPxRigidBody@2@MPBVPxVec3@2@_N@Z 10028340 f   PhysX3ExtensionsDEBUG:ExtRigidBodyExt.obj
 0001:00027370       ?setMassAndUpdateInertia@PxRigidBodyExt@physx@@SA_NAAVPxRigidBody@2@PBMIPBVPxVec3@2@_N@Z 10028370 f   PhysX3ExtensionsDEBUG:ExtRigidBodyExt.obj
 0001:000273a0       ?setMassAndUpdateInertia@PxRigidBodyExt@physx@@SA_NAAVPxRigidBody@2@MPBVPxVec3@2@_N@Z 100283a0 f   PhysX3ExtensionsDEBUG:ExtRigidBodyExt.obj
 0001:000273d0       ?addForceAtPos@PxRigidBodyExt@physx@@SAXAAVPxRigidBody@2@ABVPxVec3@2@1W4Enum@PxForceMode@2@_N@Z 100283d0 f   PhysX3ExtensionsDEBUG:ExtRigidBodyExt.obj
 0001:00027400       ?addForceAtLocalPos@PxRigidBodyExt@physx@@SAXAAVPxRigidBody@2@ABVPxVec3@2@1W4Enum@PxForceMode@2@_N@Z 10028400 f   PhysX3ExtensionsDEBUG:ExtRigidBodyExt.obj
 0001:00027450       ?addLocalForceAtPos@PxRigidBodyExt@physx@@SAXAAVPxRigidBody@2@ABVPxVec3@2@1W4Enum@PxForceMode@2@_N@Z 10028450 f   PhysX3ExtensionsDEBUG:ExtRigidBodyExt.obj
 0001:000274a0       ?addLocalForceAtLocalPos@PxRigidBodyExt@physx@@SAXAAVPxRigidBody@2@ABVPxVec3@2@1W4Enum@PxForceMode@2@_N@Z 100284a0 f   PhysX3ExtensionsDEBUG:ExtRigidBodyExt.obj
 0001:00027500       ?getVelocityAtPos@PxRigidBodyExt@physx@@SA?AVPxVec3@2@ABVPxRigidBody@2@ABV32@@Z 10028500 f   PhysX3ExtensionsDEBUG:ExtRigidBodyExt.obj
 0001:00027570       ?getLocalVelocityAtLocalPos@PxRigidBodyExt@physx@@SA?AVPxVec3@2@ABVPxRigidBody@2@ABV32@@Z 10028570 f   PhysX3ExtensionsDEBUG:ExtRigidBodyExt.obj
 0001:000275f0       ?getVelocityAtOffset@PxRigidBodyExt@physx@@SA?AVPxVec3@2@ABVPxRigidBody@2@ABV32@@Z 100285f0 f   PhysX3ExtensionsDEBUG:ExtRigidBodyExt.obj
 0001:00027660       ?linearSweepSingle@PxRigidBodyExt@physx@@SA_NAAVPxRigidBody@2@AAVPxScene@2@ABVPxVec3@2@MV?$PxFlags@W4Enum@PxHitFlag@physx@@G@2@AAUPxSweepHit@2@AAIABUPxQueryFilterData@2@PAVPxQueryFilterCallback@2@PBUPxQueryCache@2@M@Z 10028660 f   PhysX3ExtensionsDEBUG:ExtRigidBodyExt.obj
 0001:00027890       ?linearSweepMultiple@PxRigidBodyExt@physx@@SAIAAVPxRigidBody@2@AAVPxScene@2@ABVPxVec3@2@MV?$PxFlags@W4Enum@PxHitFlag@physx@@G@2@PAUPxSweepHit@2@PAIIAAU72@AAHAA_NABUPxQueryFilterData@2@PAVPxQueryFilterCallback@2@PBUPxQueryCache@2@M@Z 10028890 f   PhysX3ExtensionsDEBUG:ExtRigidBodyExt.obj
 0001:00027cc0       ?computeVelocityDeltaFromImpulse@PxRigidBodyExt@physx@@SAXABVPxRigidBody@2@ABVPxVec3@2@1AAV42@2@Z 10028cc0 f   PhysX3ExtensionsDEBUG:ExtRigidBodyExt.obj
 0001:000281d0       ?computeVelocityDeltaFromImpulse@PxRigidBodyExt@physx@@SAXABVPxRigidBody@2@ABVPxTransform@2@ABVPxVec3@2@2MMAAV52@3@Z 100291d0 f   PhysX3ExtensionsDEBUG:ExtRigidBodyExt.obj
 0001:000282d0       ?computeLinearAngularImpulse@PxRigidBodyExt@physx@@SAXABVPxRigidBody@2@ABVPxTransform@2@ABVPxVec3@2@2MMAAV52@3@Z 100292d0 f   PhysX3ExtensionsDEBUG:ExtRigidBodyExt.obj
 0001:00028360       ??0InertiaTensorComputer@Ext@physx@@QAE@_N@Z 10029360 f   PhysX3ExtensionsDEBUG:ExtRigidBodyExt.obj
 0001:000283a0       ??0InertiaTensorComputer@Ext@physx@@QAE@ABVPxMat33@2@ABVPxVec3@2@M@Z 100293a0 f   PhysX3ExtensionsDEBUG:ExtRigidBodyExt.obj
 0001:000283e0       ??1InertiaTensorComputer@Ext@physx@@QAE@XZ 100293e0 f   PhysX3ExtensionsDEBUG:ExtRigidBodyExt.obj
 0001:000283f0       ?translate@InertiaTensorComputer@Ext@physx@@QAEXABVPxVec3@3@@Z 100293f0 f   PhysX3ExtensionsDEBUG:ExtRigidBodyExt.obj
 0001:00028730       ?setBox@InertiaTensorComputer@Ext@physx@@QAEXABVPxVec3@3@@Z 10029730 f   PhysX3ExtensionsDEBUG:ExtRigidBodyExt.obj
 0001:00028820       ?setSphere@InertiaTensorComputer@Ext@physx@@QAEXM@Z 10029820 f   PhysX3ExtensionsDEBUG:ExtRigidBodyExt.obj
 0001:000288a0       ?setCylinder@InertiaTensorComputer@Ext@physx@@QAEXHMM@Z 100298a0 f   PhysX3ExtensionsDEBUG:ExtRigidBodyExt.obj
 0001:00028a00       ?setCapsule@InertiaTensorComputer@Ext@physx@@QAEXHMM@Z 10029a00 f   PhysX3ExtensionsDEBUG:ExtRigidBodyExt.obj
 0001:00028bf0       ?setEllipsoid@InertiaTensorComputer@Ext@physx@@QAEXMMM@Z 10029bf0 f   PhysX3ExtensionsDEBUG:ExtRigidBodyExt.obj
 0001:00028cb0       ?computeSphereMass@Ext@physx@@YAMMM@Z 10029cb0 f   PhysX3ExtensionsDEBUG:ExtRigidBodyExt.obj
 0001:00028cf0       ?computeSphereDensity@Ext@physx@@YAMMM@Z 10029cf0 f   PhysX3ExtensionsDEBUG:ExtRigidBodyExt.obj
 0001:00028d30       ?computeBoxMass@Ext@physx@@YAMABVPxVec3@2@M@Z 10029d30 f   PhysX3ExtensionsDEBUG:ExtRigidBodyExt.obj
 0001:00028d60       ?computeBoxDensity@Ext@physx@@YAMABVPxVec3@2@M@Z 10029d60 f   PhysX3ExtensionsDEBUG:ExtRigidBodyExt.obj
 0001:00028d90       ?computeEllipsoidMass@Ext@physx@@YAMABVPxVec3@2@M@Z 10029d90 f   PhysX3ExtensionsDEBUG:ExtRigidBodyExt.obj
 0001:00028dc0       ?computeEllipsoidDensity@Ext@physx@@YAMABVPxVec3@2@M@Z 10029dc0 f   PhysX3ExtensionsDEBUG:ExtRigidBodyExt.obj
 0001:00028df0       ?computeCylinderMass@Ext@physx@@YAMMMM@Z 10029df0 f   PhysX3ExtensionsDEBUG:ExtRigidBodyExt.obj
 0001:00028e30       ?computeCylinderDensity@Ext@physx@@YAMMMM@Z 10029e30 f   PhysX3ExtensionsDEBUG:ExtRigidBodyExt.obj
 0001:00028e70       ?computeCapsuleMass@Ext@physx@@YAMMMM@Z 10029e70 f   PhysX3ExtensionsDEBUG:ExtRigidBodyExt.obj
 0001:00028eb0       ?computeCapsuleDensity@Ext@physx@@YAMMMM@Z 10029eb0 f   PhysX3ExtensionsDEBUG:ExtRigidBodyExt.obj
 0001:00028ef0       ?computeConeMass@Ext@physx@@YAMMMM@Z 10029ef0 f   PhysX3ExtensionsDEBUG:ExtRigidBodyExt.obj
 0001:00028f30       ?computeConeDensity@Ext@physx@@YAMMMM@Z 10029f30 f   PhysX3ExtensionsDEBUG:ExtRigidBodyExt.obj
 0001:00028f70       ?computeBoxInertiaTensor@Ext@physx@@YAXAAVPxVec3@2@MMMM@Z 10029f70 f   PhysX3ExtensionsDEBUG:ExtRigidBodyExt.obj
 0001:00029120       ?computeSphereInertiaTensor@Ext@physx@@YAXAAVPxVec3@2@MM_N@Z 1002a120 f   PhysX3ExtensionsDEBUG:ExtRigidBodyExt.obj
 0001:0002b450       ??$PX_UNUSED@PBUPxSweepHit@physx@@@@YAXABQBUPxSweepHit@physx@@@Z 1002c450 f i PhysX3ExtensionsDEBUG:ExtRigidBodyExt.obj
 0001:0002b460       ??$PX_UNUSED@W4PxZERO@physx@@@@YAXABW4PxZERO@physx@@@Z 1002c460 f i PhysX3ExtensionsDEBUG:ExtRigidBodyExt.obj
 0001:0002b470       ??$PxUnionCast@PAVPxGeometry@physx@@PAY03E@physx@@YAPAVPxGeometry@0@PAY03E@Z 1002c470 f i PhysX3ExtensionsDEBUG:ExtRigidBodyExt.obj
 0001:0002b490       ??0?$Array@PAVPxShape@physx@@V?$InlineAllocator@$0EA@VNamedAllocator@shdfnd@physx@@@shdfnd@2@@shdfnd@physx@@QAE@ABV?$InlineAllocator@$0EA@VNamedAllocator@shdfnd@physx@@@12@@Z 1002c490 f i PhysX3ExtensionsDEBUG:ExtRigidBodyExt.obj
 0001:0002b4e0       ??0?$InlineAllocator@$0EA@VNamedAllocator@shdfnd@physx@@@shdfnd@physx@@QAE@ABV012@@Z 1002c4e0 f i PhysX3ExtensionsDEBUG:ExtRigidBodyExt.obj
 0001:0002b510       ??0?$InlineAllocator@$0EA@VNamedAllocator@shdfnd@physx@@@shdfnd@physx@@QAE@ABVNamedAllocator@12@@Z 1002c510 f i PhysX3ExtensionsDEBUG:ExtRigidBodyExt.obj
 0001:0002b540       ??0?$InlineArray@PAVPxShape@physx@@$0BA@VNamedAllocator@shdfnd@2@@shdfnd@physx@@QAE@ABVNamedAllocator@12@@Z 1002c540 f i PhysX3ExtensionsDEBUG:ExtRigidBodyExt.obj
 0001:0002b5a0       ??0?$PxHitBuffer@UPxSweepHit@physx@@@physx@@QAE@PAUPxSweepHit@1@I@Z 1002c5a0 f i PhysX3ExtensionsDEBUG:ExtRigidBodyExt.obj
 0001:0002b5e0       ??0?$PxHitCallback@UPxSweepHit@physx@@@physx@@QAE@PAUPxSweepHit@1@I@Z 1002c5e0 f i PhysX3ExtensionsDEBUG:ExtRigidBodyExt.obj
 0001:0002b660       ??0PxMat33@physx@@QAE@ABV01@@Z 1002c660 f i PhysX3ExtensionsDEBUG:ExtRigidBodyExt.obj
 0001:0002b6b0       ??0PxMat33@physx@@QAE@W4PxZERO@1@@Z 1002c6b0 f i PhysX3ExtensionsDEBUG:ExtRigidBodyExt.obj
 0001:0002b730       ??0PxMat33@physx@@QAE@XZ   1002c730 f i PhysX3ExtensionsDEBUG:ExtRigidBodyExt.obj
 0001:0002b770       ??0PxQueryFilterData@physx@@QAE@XZ 1002c770 f i PhysX3ExtensionsDEBUG:ExtRigidBodyExt.obj
 0001:0002b7b0       ??1?$Array@PAVPxShape@physx@@V?$InlineAllocator@$0EA@VNamedAllocator@shdfnd@physx@@@shdfnd@2@@shdfnd@physx@@QAE@XZ 1002c7b0 f i PhysX3ExtensionsDEBUG:ExtRigidBodyExt.obj
 0001:0002b820       ??1?$InlineAllocator@$0EA@VNamedAllocator@shdfnd@physx@@@shdfnd@physx@@QAE@XZ 1002c820 f i PhysX3ExtensionsDEBUG:ExtRigidBodyExt.obj
 0001:0002b840       ??1?$InlineArray@PAVPxShape@physx@@$0BA@VNamedAllocator@shdfnd@2@@shdfnd@physx@@QAE@XZ 1002c840 f i PhysX3ExtensionsDEBUG:ExtRigidBodyExt.obj
 0001:0002b860       ??1?$PxHitBuffer@UPxSweepHit@physx@@@physx@@UAE@XZ 1002c860 f i PhysX3ExtensionsDEBUG:ExtRigidBodyExt.obj
 0001:0002b890       ??1?$PxHitCallback@UPxSweepHit@physx@@@physx@@UAE@XZ 1002c890 f i PhysX3ExtensionsDEBUG:ExtRigidBodyExt.obj
 0001:0002b8b0       ??4InertiaTensorComputer@Ext@physx@@QAEAAV012@ABV012@@Z 1002c8b0 f i PhysX3ExtensionsDEBUG:ExtRigidBodyExt.obj
 0001:0002b900       ??4PxMat33@physx@@QAEAAV01@ABV01@@Z 1002c900 f i PhysX3ExtensionsDEBUG:ExtRigidBodyExt.obj
 0001:0002b950       ??4PxSweepHit@physx@@QAEAAU01@ABU01@@Z 1002c950 f i PhysX3ExtensionsDEBUG:ExtRigidBodyExt.obj
 0001:0002b990       ??A?$Array@PAVPxShape@physx@@V?$InlineAllocator@$0EA@VNamedAllocator@shdfnd@physx@@@shdfnd@2@@shdfnd@physx@@QAEAAPAVPxShape@2@I@Z 1002c990 f i PhysX3ExtensionsDEBUG:ExtRigidBodyExt.obj
 0001:0002ba10       ??APxMat33@physx@@QAEAAVPxVec3@1@H@Z 1002ca10 f i PhysX3ExtensionsDEBUG:ExtRigidBodyExt.obj
 0001:0002ba30       ??APxMat33@physx@@QAEAAVPxVec3@1@I@Z 1002ca30 f i PhysX3ExtensionsDEBUG:ExtRigidBodyExt.obj
 0001:0002ba50       ??APxVec3@physx@@QAEAAMH@Z 1002ca50 f i PhysX3ExtensionsDEBUG:ExtRigidBodyExt.obj
 0001:0002bac0       ??APxVec3@physx@@QAEAAMI@Z 1002cac0 f i PhysX3ExtensionsDEBUG:ExtRigidBodyExt.obj
 0001:0002bb30       ??DPxMat33@physx@@QBE?AV01@M@Z 1002cb30 f i PhysX3ExtensionsDEBUG:ExtRigidBodyExt.obj
 0001:0002bbc0       ??DPxMat33@physx@@QBE?AVPxVec3@1@ABV21@@Z 1002cbc0 f i PhysX3ExtensionsDEBUG:ExtRigidBodyExt.obj
 0001:0002bbf0       ??GPxMat33@physx@@QBE?AV01@ABV01@@Z 1002cbf0 f i PhysX3ExtensionsDEBUG:ExtRigidBodyExt.obj
 0001:0002bc60       ??KPxVec3@physx@@QBE?AV01@M@Z 1002cc60 f i PhysX3ExtensionsDEBUG:ExtRigidBodyExt.obj
 0001:0002bce0       ??RPxMat33@physx@@QAEAAMII@Z 1002cce0 f i PhysX3ExtensionsDEBUG:ExtRigidBodyExt.obj
 0001:0002bd10       ??RPxMat33@physx@@QBEMII@Z 1002cd10 f i PhysX3ExtensionsDEBUG:ExtRigidBodyExt.obj
 0001:0002bd40       ??XPxMat33@physx@@QAEAAV01@M@Z 1002cd40 f i PhysX3ExtensionsDEBUG:ExtRigidBodyExt.obj
 0001:0002bdb0       ??YPxMat33@physx@@QAEAAV01@ABV01@@Z 1002cdb0 f i PhysX3ExtensionsDEBUG:ExtRigidBodyExt.obj
 0001:0002be00       ??_E?$PxHitBuffer@UPxSweepHit@physx@@@physx@@UAEPAXI@Z 1002ce00 f i PhysX3ExtensionsDEBUG:ExtRigidBodyExt.obj
 0001:0002be00       ??_G?$PxHitBuffer@UPxSweepHit@physx@@@physx@@UAEPAXI@Z 1002ce00 f i PhysX3ExtensionsDEBUG:ExtRigidBodyExt.obj
 0001:0002be40       ??_G?$PxHitCallback@UPxSweepHit@physx@@@physx@@UAEPAXI@Z 1002ce40 f i PhysX3ExtensionsDEBUG:ExtRigidBodyExt.obj
 0001:0002be40       ??_E?$PxHitCallback@UPxSweepHit@physx@@@physx@@UAEPAXI@Z 1002ce40 f i PhysX3ExtensionsDEBUG:ExtRigidBodyExt.obj
 0001:0002be80       ?add@InertiaTensorComputer@Ext@physx@@QAEXABV123@@Z 1002ce80 f i PhysX3ExtensionsDEBUG:ExtRigidBodyExt.obj
 0001:0002c090       ?addForceAtPosInternal@@YAXAAVPxRigidBody@physx@@ABVPxVec3@2@1W4Enum@PxForceMode@2@_N@Z 1002d090 f i PhysX3ExtensionsDEBUG:ExtRigidBodyExt.obj
 0001:0002c190       ?allocate@?$Array@PAVPxShape@physx@@V?$InlineAllocator@$0EA@VNamedAllocator@shdfnd@physx@@@shdfnd@2@@shdfnd@physx@@IAEPAPAVPxShape@3@I@Z 1002d190 f i PhysX3ExtensionsDEBUG:ExtRigidBodyExt.obj
 0001:0002c210       ?allocate@?$InlineAllocator@$0EA@VNamedAllocator@shdfnd@physx@@@shdfnd@physx@@QAEPAXIPBDH@Z 1002d210 f i PhysX3ExtensionsDEBUG:ExtRigidBodyExt.obj
 0001:0002c260       ?any@PxGeometryHolder@physx@@QAEAAVPxGeometry@2@XZ 1002d260 f i PhysX3ExtensionsDEBUG:ExtRigidBodyExt.obj
 0001:0002c280       ?basisExtent@PxBounds3@physx@@SA?AV12@ABVPxVec3@2@ABVPxMat33@2@0@Z 1002d280 f i PhysX3ExtensionsDEBUG:ExtRigidBodyExt.obj
 0001:0002c4d0       ?begin@?$Array@PAVPxShape@physx@@V?$InlineAllocator@$0EA@VNamedAllocator@shdfnd@physx@@@shdfnd@2@@shdfnd@physx@@QAEPAPAVPxShape@3@XZ 1002d4d0 f i PhysX3ExtensionsDEBUG:ExtRigidBodyExt.obj
 0001:0002c4f0       ?capacity@?$Array@PAVPxShape@physx@@V?$InlineAllocator@$0EA@VNamedAllocator@shdfnd@physx@@@shdfnd@2@@shdfnd@physx@@QBEIXZ 1002d4f0 f i PhysX3ExtensionsDEBUG:ExtRigidBodyExt.obj
 0001:0002c510       ?center@InertiaTensorComputer@Ext@physx@@QAEXXZ 1002d510 f i PhysX3ExtensionsDEBUG:ExtRigidBodyExt.obj
 0001:0002c550       ?computeBoxRatio@Ext@physx@@YAMABVPxVec3@2@@Z 1002d550 f i PhysX3ExtensionsDEBUG:ExtRigidBodyExt.obj
 0001:0002c570       ?computeCapsuleRatio@Ext@physx@@YAMMM@Z 1002d570 f i PhysX3ExtensionsDEBUG:ExtRigidBodyExt.obj
 0001:0002c5f0       ?computeConeRatio@Ext@physx@@YAMMM@Z 1002d5f0 f i PhysX3ExtensionsDEBUG:ExtRigidBodyExt.obj
 0001:0002c660       ?computeCylinderRatio@Ext@physx@@YAMMM@Z 1002d660 f i PhysX3ExtensionsDEBUG:ExtRigidBodyExt.obj
 0001:0002c6a0       ?computeEllipsoidRatio@Ext@physx@@YAMABVPxVec3@2@@Z 1002d6a0 f i PhysX3ExtensionsDEBUG:ExtRigidBodyExt.obj
 0001:0002c6e0       ?computeSphereRatio@Ext@physx@@YAMM@Z 1002d6e0 f i PhysX3ExtensionsDEBUG:ExtRigidBodyExt.obj
 0001:0002c710       ?copy@?$Array@PAVPxShape@physx@@V?$InlineAllocator@$0EA@VNamedAllocator@shdfnd@physx@@@shdfnd@2@@shdfnd@physx@@KAXPAPAVPxShape@3@0PBQAV43@@Z 1002d710 f i PhysX3ExtensionsDEBUG:ExtRigidBodyExt.obj
 0001:0002c780       ?create@?$Array@PAVPxShape@physx@@V?$InlineAllocator@$0EA@VNamedAllocator@shdfnd@physx@@@shdfnd@2@@shdfnd@physx@@KAXPAPAVPxShape@3@0ABQAV43@@Z 1002d780 f i PhysX3ExtensionsDEBUG:ExtRigidBodyExt.obj
 0001:0002c7f0       ?createDiagonal@PxMat33@physx@@SA?AV12@ABVPxVec3@2@@Z 1002d7f0 f i PhysX3ExtensionsDEBUG:ExtRigidBodyExt.obj
 0001:0002c8d0       ?deallocate@?$Array@PAVPxShape@physx@@V?$InlineAllocator@$0EA@VNamedAllocator@shdfnd@physx@@@shdfnd@2@@shdfnd@physx@@IAEXPAX@Z 1002d8d0 f i PhysX3ExtensionsDEBUG:ExtRigidBodyExt.obj
 0001:0002c8f0       ?deallocate@?$InlineAllocator@$0EA@VNamedAllocator@shdfnd@physx@@@shdfnd@physx@@QAEXPAX@Z 1002d8f0 f i PhysX3ExtensionsDEBUG:ExtRigidBodyExt.obj
 0001:0002c930       ?destroy@?$Array@PAVPxShape@physx@@V?$InlineAllocator@$0EA@VNamedAllocator@shdfnd@physx@@@shdfnd@2@@shdfnd@physx@@KAXPAPAVPxShape@3@0@Z 1002d930 f i PhysX3ExtensionsDEBUG:ExtRigidBodyExt.obj
 0001:0002c950       ?finalizeQuery@?$PxHitCallback@UPxSweepHit@physx@@@physx@@UAEXXZ 1002d950 f i PhysX3ExtensionsDEBUG:ExtRigidBodyExt.obj
 0001:0002c960       ?getCenterOfMass@InertiaTensorComputer@Ext@physx@@QBE?AVPxVec3@3@XZ 1002d960 f i PhysX3ExtensionsDEBUG:ExtRigidBodyExt.obj
 0001:0002c990       ?getConjugate@PxQuat@physx@@QBE?AV12@XZ 1002d990 f i PhysX3ExtensionsDEBUG:ExtRigidBodyExt.obj
 0001:0002ca10       ?getInertia@InertiaTensorComputer@Ext@physx@@QBE?AVPxMat33@3@XZ 1002da10 f i PhysX3ExtensionsDEBUG:ExtRigidBodyExt.obj
 0001:0002ca40       ?getInverse@PxTransform@physx@@QBE?AV12@XZ 1002da40 f i PhysX3ExtensionsDEBUG:ExtRigidBodyExt.obj
 0001:0002caf0       ?getMass@InertiaTensorComputer@Ext@physx@@QBEMXZ 1002daf0 f i PhysX3ExtensionsDEBUG:ExtRigidBodyExt.obj
 0001:0002cb10       ?getNbTouches@?$PxHitBuffer@UPxSweepHit@physx@@@physx@@QBEIXZ 1002db10 f i PhysX3ExtensionsDEBUG:ExtRigidBodyExt.obj
 0001:0002cb30       ?getVelocityAtPosInternal@@YA?AVPxVec3@physx@@ABVPxRigidBody@2@ABV12@@Z 1002db30 f i PhysX3ExtensionsDEBUG:ExtRigidBodyExt.obj
 0001:0002cba0       ?grow@?$Array@PAVPxShape@physx@@V?$InlineAllocator@$0EA@VNamedAllocator@shdfnd@physx@@@shdfnd@2@@shdfnd@physx@@IAEXI@Z 1002dba0 f i PhysX3ExtensionsDEBUG:ExtRigidBodyExt.obj
 0001:0002cc20       ?isIdentity@PxMeshScale@physx@@QBE_NXZ 1002dc20 f i PhysX3ExtensionsDEBUG:ExtRigidBodyExt.obj
 0001:0002cca0       ?isInUserMemory@?$Array@PAVPxShape@physx@@V?$InlineAllocator@$0EA@VNamedAllocator@shdfnd@physx@@@shdfnd@2@@shdfnd@physx@@QBEIXZ 1002dca0 f i PhysX3ExtensionsDEBUG:ExtRigidBodyExt.obj
 0001:0002ccc0       ?multiply@PxVec3@physx@@QBE?AV12@ABV12@@Z 1002dcc0 f i PhysX3ExtensionsDEBUG:ExtRigidBodyExt.obj
 0001:0002cd30       ?processTouches@?$PxHitBuffer@UPxSweepHit@physx@@@physx@@MAE_NPBUPxSweepHit@2@I@Z 1002dd30 f i PhysX3ExtensionsDEBUG:ExtRigidBodyExt.obj
 0001:0002cd60       ?recreate@?$Array@PAVPxShape@physx@@V?$InlineAllocator@$0EA@VNamedAllocator@shdfnd@physx@@@shdfnd@2@@shdfnd@physx@@IAEXI@Z 1002dd60 f i PhysX3ExtensionsDEBUG:ExtRigidBodyExt.obj
 0001:0002ce70       ?reserve@?$Array@PAVPxShape@physx@@V?$InlineAllocator@$0EA@VNamedAllocator@shdfnd@physx@@@shdfnd@2@@shdfnd@physx@@QAEXI@Z 1002de70 f i PhysX3ExtensionsDEBUG:ExtRigidBodyExt.obj
 0001:0002cea0       ?resize@?$Array@PAVPxShape@physx@@V?$InlineAllocator@$0EA@VNamedAllocator@shdfnd@physx@@@shdfnd@2@@shdfnd@physx@@QAEXIABQAVPxShape@3@@Z 1002dea0 f i PhysX3ExtensionsDEBUG:ExtRigidBodyExt.obj
 0001:0002cf30       ?rotate@InertiaTensorComputer@Ext@physx@@QAEXABVPxMat33@3@@Z 1002df30 f i PhysX3ExtensionsDEBUG:ExtRigidBodyExt.obj
 0001:0002d090       ?rotateInertia@MassProps@Ext@physx@@SA?AVPxMat33@3@ABV43@ABVPxQuat@3@@Z 1002e090 f i PhysX3ExtensionsDEBUG:ExtRigidBodyExt.obj
 0001:0002d0f0       ?scaleDensity@InertiaTensorComputer@Ext@physx@@QAEXM@Z 1002e0f0 f i PhysX3ExtensionsDEBUG:ExtRigidBodyExt.obj
 0001:0002d220       ?scaleInertia@MassProps@Ext@physx@@SA?AVPxMat33@3@ABV43@ABVPxQuat@3@ABVPxVec3@3@@Z 1002e220 f i PhysX3ExtensionsDEBUG:ExtRigidBodyExt.obj
 0001:0002d530       ?setBox@InertiaTensorComputer@Ext@physx@@QAEXABVPxVec3@3@PBVPxTransform@3@@Z 1002e530 f i PhysX3ExtensionsDEBUG:ExtRigidBodyExt.obj
 0001:0002d570       ?setCapsule@InertiaTensorComputer@Ext@physx@@QAEXHMMPBVPxTransform@3@@Z 1002e570 f i PhysX3ExtensionsDEBUG:ExtRigidBodyExt.obj
 0001:0002d5d0       ?setDiagonal@InertiaTensorComputer@Ext@physx@@QAEXMABVPxVec3@3@@Z 1002e5d0 f i PhysX3ExtensionsDEBUG:ExtRigidBodyExt.obj
 0001:0002d730       ?setSphere@InertiaTensorComputer@Ext@physx@@QAEXMPBVPxTransform@3@@Z 1002e730 f i PhysX3ExtensionsDEBUG:ExtRigidBodyExt.obj
 0001:0002d770       ?size@?$Array@PAVPxShape@physx@@V?$InlineAllocator@$0EA@VNamedAllocator@shdfnd@physx@@@shdfnd@2@@shdfnd@physx@@QBEIXZ 1002e770 f i PhysX3ExtensionsDEBUG:ExtRigidBodyExt.obj
 0001:0002d790       ?transform@InertiaTensorComputer@Ext@physx@@QAEXABVPxTransform@3@@Z 1002e790 f i PhysX3ExtensionsDEBUG:ExtRigidBodyExt.obj
 0001:0002d7d0       ?transformFast@PxBounds3@physx@@SA?AV12@ABVPxTransform@2@ABV12@@Z 1002e7d0 f i PhysX3ExtensionsDEBUG:ExtRigidBodyExt.obj
 0001:0002d890       ?volume@Ext@physx@@YAMABVPxVec3@2@@Z 1002e890 f i PhysX3ExtensionsDEBUG:ExtRigidBodyExt.obj
 0001:0002d940       ?zero@InertiaTensorComputer@Ext@physx@@QAEXXZ 1002e940 f i PhysX3ExtensionsDEBUG:ExtRigidBodyExt.obj
 0001:0002d9b0       ??3@YAXPAXI@Z              1002e9b0 f   MSVCRTD:delete_scalar_size.obj
 0001:0002d9d0       ??_V@YAXPAXI@Z             1002e9d0 f   MSVCRTD:delete_array_size.obj
 0001:0002d9f0       __CRT_RTC_INIT             1002e9f0 f   MSVCRTD:_init_.obj
 0001:0002da00       __CRT_RTC_INITW            1002ea00 f   MSVCRTD:_init_.obj
 0001:0002da10       __RTC_InitBase             1002ea10 f   MSVCRTD:_init_.obj
 0001:0002da50       __RTC_Shutdown             1002ea50 f   MSVCRTD:_init_.obj
 0001:0002da70       __alloca_probe_16          1002ea70 f   MSVCRTD:alloca16.obj
 0001:0002da86       __alloca_probe_8           1002ea86     MSVCRTD:alloca16.obj
 0001:0002dab0       __ftoui3                   1002eab0 f   MSVCRTD:_ftol3_.obj
 0001:0002dabf       __ftoul3                   1002eabf f   MSVCRTD:_ftol3_.obj
 0001:0002dace       __ftol3                    1002eace f   MSVCRTD:_ftol3_.obj
 0001:0002dadb       __ftol3_NaN                1002eadb f   MSVCRTD:_ftol3_.obj
 0001:0002daf3       __ftol3_work               1002eaf3 f   MSVCRTD:_ftol3_.obj
 0001:0002db79       __ftol3_common             1002eb79 f   MSVCRTD:_ftol3_.obj
 0001:0002dc3b       __ftol3_arg_error          1002ec3b f   MSVCRTD:_ftol3_.obj
 0001:0002dc4d       __ftol3_except             1002ec4d f   MSVCRTD:_ftol3_.obj
 0001:0002dc91       __dtoui3                   1002ec91 f   MSVCRTD:_ftol3_.obj
 0001:0002dca0       __dtoul3                   1002eca0 f   MSVCRTD:_ftol3_.obj
 0001:0002dcaf       __dtol3                    1002ecaf f   MSVCRTD:_ftol3_.obj
 0001:0002dcbc       __dtol3_NaN                1002ecbc f   MSVCRTD:_ftol3_.obj
 0001:0002dcd9       __dtol3_work               1002ecd9 f   MSVCRTD:_ftol3_.obj
 0001:0002ddc0       __ultod3                   1002edc0 f   MSVCRTD:_ftol3_.obj
 0001:0002de00       __ltod3                    1002ee00 f   MSVCRTD:_ftol3_.obj
 0001:0002df10       ?__scrt_initialize_type_info@@YAXXZ 1002ef10 f   MSVCRTD:tncleanup.obj
 0001:0002df30       ?__scrt_uninitialize_type_info@@YAXXZ 1002ef30 f   MSVCRTD:tncleanup.obj
 0001:0002df50       ??1type_info@@UAE@XZ       1002ef50 f   MSVCRTD:std_type_info_static.obj
 0001:0002df70       ??_Gtype_info@@UAEPAXI@Z   1002ef70 f i MSVCRTD:std_type_info_static.obj
 0001:0002df70       ??_Etype_info@@UAEPAXI@Z   1002ef70 f i MSVCRTD:std_type_info_static.obj
 0001:0002e590       __CRT_INIT@12              1002f590 f   MSVCRTD:dll_dllmain.obj
 0001:0002e5b0       __DllMainCRTStartup@12     1002f5b0 f   MSVCRTD:dll_dllmain.obj
 0001:0002e5e0       ??3@YAXPAX@Z               1002f5e0 f   MSVCRTD:delete_scalar.obj
 0001:0002e600       ??_V@YAXPAX@Z              1002f600 f   MSVCRTD:delete_array.obj
 0001:0002e620       ?_RTC_GetErrorFunc@@YAP6AHHPBDH00ZZPBX@Z 1002f620 f   MSVCRTD:_userapi_.obj
 0001:0002e630       ?_RTC_GetErrorFuncW@@YAP6AHHPB_WH00ZZPBX@Z 1002f630 f   MSVCRTD:_userapi_.obj
 0001:0002e640       __RTC_GetErrDesc           1002f640 f   MSVCRTD:_userapi_.obj
 0001:0002e660       __RTC_NumErrors            1002f660 f   MSVCRTD:_userapi_.obj
 0001:0002e670       __RTC_SetErrorFunc         1002f670 f   MSVCRTD:_userapi_.obj
 0001:0002e6a0       __RTC_SetErrorFuncW        1002f6a0 f   MSVCRTD:_userapi_.obj
 0001:0002e6d0       __RTC_SetErrorType         1002f6d0 f   MSVCRTD:_userapi_.obj
 0001:0002e700       __chkstk                   1002f700 f   MSVCRTD:chkstk.obj
 0001:0002e700       __alloca_probe             1002f700 f   MSVCRTD:chkstk.obj
 0001:0002e740       ??$__crt_fast_decode_pointer@PAP6AXXZ@@YAPAP6AXXZQAP6AXXZ@Z 1002f740 f i MSVCRTD:utility.obj
 0001:0002e770       ??$__crt_fast_encode_pointer@PAP6AXXZ@@YAPAP6AXXZQAP6AXXZ@Z 1002f770 f i MSVCRTD:utility.obj
 0001:0002e7b0       ?__crt_rotate_pointer_value@@YAIIH@Z 1002f7b0 f i MSVCRTD:utility.obj
 0001:0002e900       _NtCurrentTeb              1002f900 f i MSVCRTD:utility.obj
 0001:0002e910       ___scrt_acquire_startup_lock 1002f910 f   MSVCRTD:utility.obj
 0001:0002e970       ___scrt_dllmain_after_initialize_c 1002f970 f   MSVCRTD:utility.obj
 0001:0002e9a0       ___scrt_dllmain_before_initialize_c 1002f9a0 f   MSVCRTD:utility.obj
 0001:0002e9d0       ___scrt_dllmain_crt_thread_attach 1002f9d0 f   MSVCRTD:utility.obj
 0001:0002ea10       ___scrt_dllmain_crt_thread_detach 1002fa10 f   MSVCRTD:utility.obj
 0001:0002ea30       ___scrt_dllmain_exception_filter 1002fa30 f   MSVCRTD:utility.obj
 0001:0002ea90       ___scrt_dllmain_uninitialize_c 1002fa90 f   MSVCRTD:utility.obj
 0001:0002ead0       ___scrt_dllmain_uninitialize_critical 1002fad0 f   MSVCRTD:utility.obj
 0001:0002eaf0       ___scrt_initialize_crt     1002faf0 f   MSVCRTD:utility.obj
 0001:0002eb50       ___scrt_initialize_onexit_tables 1002fb50 f   MSVCRTD:utility.obj
 0001:0002ec50       ___scrt_is_nonwritable_in_current_image 1002fc50 f   MSVCRTD:utility.obj
 0001:0002edd0       ___scrt_release_startup_lock 1002fdd0 f   MSVCRTD:utility.obj
 0001:0002ee00       ___scrt_uninitialize_crt   1002fe00 f   MSVCRTD:utility.obj
 0001:0002ee50       __onexit                   1002fe50 f   MSVCRTD:utility.obj
 0001:0002eee0       _at_quick_exit             1002fee0 f   MSVCRTD:utility.obj
 0001:0002ef40       _atexit                    1002ff40 f   MSVCRTD:utility.obj
 0001:0002ef80       ___security_init_cookie    1002ff80 f   MSVCRTD:gs_support.obj
 0001:0002f0a0       _DllMain@12                100300a0 f   MSVCRTD:dll_dllmain_stub.obj
 0001:0002f0d0       ___local_stdio_printf_options 100300d0 f i MSVCRTD:default_local_stdio_options.obj
 0001:0002f0e0       ___local_stdio_scanf_options 100300e0 f i MSVCRTD:default_local_stdio_options.obj
 0001:0002f0f0       ___scrt_initialize_default_local_stdio_options 100300f0 f   MSVCRTD:default_local_stdio_options.obj
 0001:0002f140       ___scrt_get_dyn_tls_init_callback 10030140 f   MSVCRTD:dyn_tls_init.obj
 0001:0002f150       ___scrt_fastfail           10030150 f   MSVCRTD:utility_desktop.obj
 0001:0002f2e0       ___scrt_get_show_window_mode 100302e0 f   MSVCRTD:utility_desktop.obj
 0001:0002f330       ___scrt_initialize_winrt   10030330 f   MSVCRTD:utility_desktop.obj
 0001:0002f340       ___scrt_is_managed_app     10030340 f   MSVCRTD:utility_desktop.obj
 0001:0002f3f0       ___scrt_set_unhandled_exception_filter 100303f0 f   MSVCRTD:utility_desktop.obj
 0001:0002f410       ___scrt_unhandled_exception_filter@4 10030410 f   MSVCRTD:utility_desktop.obj
 0001:0002f490       __crt_debugger_hook        10030490 f   MSVCRTD:utility_desktop.obj
 0001:0002f4b0       __RTC_Initialize           100304b0 f   MSVCRTD:_initsect_.obj
 0001:0002f4f0       __RTC_Terminate            100304f0 f   MSVCRTD:_initsect_.obj
 0001:0002f530       @_guard_check_icall@4      10030530 f i MSVCRTD:checkcfg.obj
 0001:0002f550       __except_handler4          10030550 f   MSVCRTD:_chandler4gs_.obj
 0001:0002f580       ??$__vcrt_va_start_verify_argument_type@QBD@@YAXXZ 10030580 f i MSVCRTD:_error_.obj
 0001:0002f730       ?_RTC_AllocaFailure@@YAXPAXPAU_RTC_ALLOCA_NODE@@H@Z 10030730 f   MSVCRTD:_error_.obj
 0001:0002f8a0       ?_RTC_Failure@@YAXPAXH@Z   100308a0 f   MSVCRTD:_error_.obj
 0001:0002f910       ?_RTC_StackFailure@@YAXPAXPBD@Z 10030910 f   MSVCRTD:_error_.obj
 0001:0002fd80       __RTC_UninitUse            10030d80 f   MSVCRTD:_error_.obj
 0001:0002feb0       __vsprintf_s_l             10030eb0 f i MSVCRTD:_error_.obj
 0001:0002fef0       _sprintf_s                 10030ef0 f i MSVCRTD:_error_.obj
 0001:0002ff20       ___isa_available_init      10030f20 f   MSVCRTD:_cpu_disp_.obj
 0001:000302b0       ___scrt_is_ucrt_dll_in_use 100312b0 f   MSVCRTD:ucrt_detection.obj
 0001:000302e0       @_guard_check_icall_nop@4  100312e0 f i MSVCRTD:guard_support.obj
 0001:000302f0       __guard_icall_checks_enforced 100312f0 f i MSVCRTD:guard_support.obj
 0001:00030320       @__security_check_cookie@4 10031320 f   MSVCRTD:_secchk_.obj
 0001:00030900       ?_RTC_GetSrcLine@@YAHPAEPA_WKPAH1K@Z 10031900 f   MSVCRTD:_pdblkup_.obj
 0001:00030d30       ___raise_securityfailure   10031d30 f   MSVCRTD:gs_report.obj
 0001:00030d70       ___report_gsfailure        10031d70 f   MSVCRTD:gs_report.obj
 0001:00030ec0       ___report_rangecheckfailure 10031ec0 f   MSVCRTD:gs_report.obj
 0001:00030ed0       ___report_securityfailure  10031ed0 f   MSVCRTD:gs_report.obj
 0001:00030fe0       ___report_securityfailureEx 10031fe0 f   MSVCRTD:gs_report.obj
 0001:0003114e       __purecall                 1003214e f   vcruntimed:VCRUNTIME140D.dll
 0001:00031154       _memcpy                    10032154 f   vcruntimed:VCRUNTIME140D.dll
 0001:0003115a       _memset                    1003215a f   vcruntimed:VCRUNTIME140D.dll
 0001:00031160       ___std_type_info_name      10032160 f   vcruntimed:VCRUNTIME140D.dll
 0001:00031166       ___std_type_info_destroy_list 10032166 f   vcruntimed:VCRUNTIME140D.dll
 0001:0003116c       ___telemetry_main_invoke_trigger 1003216c f   vcruntimed:VCRUNTIME140D.dll
 0001:00031172       ___telemetry_main_return_trigger 10032172 f   vcruntimed:VCRUNTIME140D.dll
 0001:00031178       __except_handler4_common   10032178 f   vcruntimed:VCRUNTIME140D.dll
 0001:0003117e       ___vcrt_GetModuleFileNameW 1003217e f   vcruntimed:VCRUNTIME140D.dll
 0001:00031184       ___vcrt_GetModuleHandleW   10032184 f   vcruntimed:VCRUNTIME140D.dll
 0001:0003118a       ___vcrt_LoadLibraryExW     1003218a f   vcruntimed:VCRUNTIME140D.dll
 0001:00031190       _fabs                      10032190 f   ucrtd:ucrtbased.dll
 0001:00031196       _sqrt                      10032196 f   ucrtd:ucrtbased.dll
 0001:0003119c       __fpclass                  1003219c f   ucrtd:ucrtbased.dll
 0001:000311a2       __CrtDbgReport             100321a2 f   ucrtd:ucrtbased.dll
 0001:000311a8       __CrtDbgReportW            100321a8 f   ucrtd:ucrtbased.dll
 0001:000311ae       __except1                  100321ae f   ucrtd:ucrtbased.dll
 0001:000311b4       __initterm                 100321b4 f   ucrtd:ucrtbased.dll
 0001:000311ba       __initterm_e               100321ba f   ucrtd:ucrtbased.dll
 0001:000311c0       __free_dbg                 100321c0 f   ucrtd:ucrtbased.dll
 0001:000311c6       __seh_filter_dll           100321c6 f   ucrtd:ucrtbased.dll
 0001:000311cc       __initialize_narrow_environment 100321cc f   ucrtd:ucrtbased.dll
 0001:000311d2       __initialize_onexit_table  100321d2 f   ucrtd:ucrtbased.dll
 0001:000311d8       __register_onexit_function 100321d8 f   ucrtd:ucrtbased.dll
 0001:000311de       __execute_onexit_table     100321de f   ucrtd:ucrtbased.dll
 0001:000311e4       __crt_atexit               100321e4 f   ucrtd:ucrtbased.dll
 0001:000311ea       __crt_at_quick_exit        100321ea f   ucrtd:ucrtbased.dll
 0001:000311f0       __cexit                    100321f0 f   ucrtd:ucrtbased.dll
 0001:000311f6       _terminate                 100321f6 f   ucrtd:ucrtbased.dll
 0001:000311fc       ___stdio_common_vsprintf_s 100321fc f   ucrtd:ucrtbased.dll
 0001:00031202       __wmakepath_s              10032202 f   ucrtd:ucrtbased.dll
 0001:00031208       __wsplitpath_s             10032208 f   ucrtd:ucrtbased.dll
 0001:0003120e       _wcscpy_s                  1003220e f   ucrtd:ucrtbased.dll
 0001:00031214       _InitializeSListHead@4     10032214 f   kernel32:KERNEL32.dll
 0001:0003121a       _QueryPerformanceCounter@4 1003221a f   kernel32:KERNEL32.dll
 0001:00031220       _GetCurrentProcessId@0     10032220 f   kernel32:KERNEL32.dll
 0001:00031226       _GetCurrentThreadId@0      10032226 f   kernel32:KERNEL32.dll
 0001:0003122c       _GetSystemTimeAsFileTime@4 1003222c f   kernel32:KERNEL32.dll
 0001:00031232       _DisableThreadLibraryCalls@4 10032232 f   kernel32:KERNEL32.dll
 0001:00031238       _IsDebuggerPresent@0       10032238 f   kernel32:KERNEL32.dll
 0001:0003123e       _UnhandledExceptionFilter@4 1003223e f   kernel32:KERNEL32.dll
 0001:00031244       _SetUnhandledExceptionFilter@4 10032244 f   kernel32:KERNEL32.dll
 0001:0003124a       _GetStartupInfoW@4         1003224a f   kernel32:KERNEL32.dll
 0001:00031250       _IsProcessorFeaturePresent@4 10032250 f   kernel32:KERNEL32.dll
 0001:00031256       _GetModuleHandleW@4        10032256 f   kernel32:KERNEL32.dll
 0001:0003125c       _RaiseException@16         1003225c f   kernel32:KERNEL32.dll
 0001:00031262       _MultiByteToWideChar@24    10032262 f   kernel32:KERNEL32.dll
 0001:00031268       _WideCharToMultiByte@32    10032268 f   kernel32:KERNEL32.dll
 0001:0003126e       _GetLastError@0            1003226e f   kernel32:KERNEL32.dll
 0001:00031274       _HeapAlloc@12              10032274 f   kernel32:KERNEL32.dll
 0001:0003127a       _HeapFree@12               1003227a f   kernel32:KERNEL32.dll
 0001:00031280       _GetProcessHeap@0          10032280 f   kernel32:KERNEL32.dll
 0001:00031286       _VirtualQuery@12           10032286 f   kernel32:KERNEL32.dll
 0001:0003128c       _FreeLibrary@4             1003228c f   kernel32:KERNEL32.dll
 0001:00031292       _GetProcAddress@8          10032292 f   kernel32:KERNEL32.dll
 0001:00031298       _GetCurrentProcess@0       10032298 f   kernel32:KERNEL32.dll
 0001:0003129e       _TerminateProcess@8        1003229e f   kernel32:KERNEL32.dll
 0001:000312a4       ?findOverlapTriangleMesh@PxMeshQuery@physx@@SAIABVPxGeometry@2@ABVPxTransform@2@ABVPxTriangleMeshGeometry@2@1PAIIIAA_N@Z 100322a4 f   PhysX3CommonDEBUG_x86:PhysX3CommonDEBUG_x86.dll
 0001:000312aa       ?findOverlapHeightField@PxMeshQuery@physx@@SAIABVPxGeometry@2@ABVPxTransform@2@ABVPxHeightFieldGeometry@2@1PAIIIAA_N@Z 100322aa f   PhysX3CommonDEBUG_x86:PhysX3CommonDEBUG_x86.dll
 0001:000312b0       ?PxDiagonalize@physx@@YA?AVPxVec3@1@ABVPxMat33@1@AAVPxQuat@1@@Z 100322b0 f   PhysX3CommonDEBUG_x86:PhysX3CommonDEBUG_x86.dll
 0001:000312c0       ___vcrt_initialize         100322c0 f   MSVCRTD:ucrt_stubs.obj
 0001:000312c0       ___acrt_initialize         100322c0 f   MSVCRTD:ucrt_stubs.obj
 0001:000312c0       ___scrt_stub_for_acrt_initialize 100322c0 f   MSVCRTD:ucrt_stubs.obj
 0001:000312d0       ___scrt_stub_for_acrt_thread_attach 100322d0 f   MSVCRTD:ucrt_stubs.obj
 0001:000312d0       ___acrt_thread_attach      100322d0 f   MSVCRTD:ucrt_stubs.obj
 0001:000312d0       ___vcrt_thread_attach      100322d0 f   MSVCRTD:ucrt_stubs.obj
 0001:000312e0       ___acrt_thread_detach      100322e0 f   MSVCRTD:ucrt_stubs.obj
 0001:000312e0       ___scrt_stub_for_acrt_thread_detach 100322e0 f   MSVCRTD:ucrt_stubs.obj
 0001:000312e0       ___vcrt_thread_detach      100322e0 f   MSVCRTD:ucrt_stubs.obj
 0001:000312f0       ___vcrt_uninitialize       100322f0 f   MSVCRTD:ucrt_stubs.obj
 0001:000312f0       ___scrt_stub_for_acrt_uninitialize 100322f0 f   MSVCRTD:ucrt_stubs.obj
 0001:000312f0       ___acrt_uninitialize       100322f0 f   MSVCRTD:ucrt_stubs.obj
 0001:00031300       ___acrt_uninitialize_critical 10032300 f   MSVCRTD:ucrt_stubs.obj
 0001:00031300       ___vcrt_uninitialize_critical 10032300 f   MSVCRTD:ucrt_stubs.obj
 0001:00031300       ___scrt_stub_for_acrt_uninitialize_critical 10032300 f   MSVCRTD:ucrt_stubs.obj
 0001:00031310       ___scrt_stub_for_is_c_termination_complete 10032310 f   MSVCRTD:ucrt_stubs.obj
 0001:00031310       __is_c_termination_complete 10032310 f   MSVCRTD:ucrt_stubs.obj
 0002:00000000       ___xc_a                    10034000     MSVCRTD:initializers.obj
 0002:00000240       ___xc_z                    10034240     MSVCRTD:initializers.obj
 0002:00000344       ___xi_a                    10034344     MSVCRTD:initializers.obj
 0002:00000448       ___xi_z                    10034448     MSVCRTD:initializers.obj
 0002:0000054c       ___xp_a                    1003454c     MSVCRTD:initializers.obj
 0002:00000650       ___xp_z                    10034650     MSVCRTD:initializers.obj
 0002:00000754       ___xt_a                    10034754     MSVCRTD:initializers.obj
 0002:00000858       ___xt_z                    10034858     MSVCRTD:initializers.obj
 0002:00000960       ??_7PxController@physx@@6B@ 10034960     CctBoxController.obj
 0002:000009dc       ??_7PxBoxController@physx@@6B@ 100349dc     CctBoxController.obj
 0002:00000a78       ??_7BoxController@Cct@physx@@6BPxBoxController@2@@ 10034a78     CctBoxController.obj
 0002:00000b14       ??_7BoxController@Cct@physx@@6BController@12@@ 10034b14     CctBoxController.obj
 0002:00000b2c       ??_7PxControllerManager@physx@@6B@ 10034b2c     CctBoxController.obj
 0002:00000b88       ??_C@_0GI@HPIDMHGD@C?3?2Users?2jesse?4farag?2Desktop?2Phy@ 10034b88     CctBoxController.obj
 0002:00000c08       ??_C@_0FJ@PJMJBLIO@The?5PxControllerManager?3?3createC@ 10034c08     CctBoxController.obj
 0002:00000c74       ??_C@_0DH@ONIDOKIM@?4?4?2?4?4?2PhysXCharacterKinematic?2sr@ 10034c74     CctBoxController.obj
 0002:00000cb8       ??_C@_0DB@EHPECLAO@shape?9?$DOgetGeometryType?$CI?$CJ?5?$DN?$DN?5PxGe@ 10034cb8     CctBoxController.obj
 0002:00000cf4       __real@00000000            10034cf4     CctBoxController.obj
 0002:00000cf8       __real@3f000000            10034cf8     CctBoxController.obj
 0002:00000cfc       ??_7PxCapsuleController@physx@@6B@ 10034cfc     CctCapsuleController.obj
 0002:00000d98       ??_7CapsuleController@Cct@physx@@6BPxCapsuleController@2@@ 10034d98     CctCapsuleController.obj
 0002:00000e34       ??_7CapsuleController@Cct@physx@@6BController@12@@ 10034e34     CctCapsuleController.obj
 0002:00000e4c       ??_C@_0DL@DGAPCADK@?4?4?2?4?4?2PhysXCharacterKinematic?2sr@ 10034e4c     CctCapsuleController.obj
 0002:00000e94       ??_C@_0DF@ELIHFCHJ@shape?9?$DOgetGeometryType?$CI?$CJ?5?$DN?$DN?5PxGe@ 10034e94     CctCapsuleController.obj
 0002:00000f20       ?g_PXSinCoefficients0@aos@shdfnd@physx@@3UPX_VECTORF32@123@B 10034f20     CctCharacterController.obj
 0002:00000f40       ?g_PXSinCoefficients1@aos@shdfnd@physx@@3UPX_VECTORF32@123@B 10034f40     CctCharacterController.obj
 0002:00000f60       ?g_PXSinCoefficients2@aos@shdfnd@physx@@3UPX_VECTORF32@123@B 10034f60     CctCharacterController.obj
 0002:00000f80       ?g_PXCosCoefficients0@aos@shdfnd@physx@@3UPX_VECTORF32@123@B 10034f80     CctCharacterController.obj
 0002:00000fa0       ?g_PXCosCoefficients1@aos@shdfnd@physx@@3UPX_VECTORF32@123@B 10034fa0     CctCharacterController.obj
 0002:00000fc0       ?g_PXCosCoefficients2@aos@shdfnd@physx@@3UPX_VECTORF32@123@B 10034fc0     CctCharacterController.obj
 0002:00000fe0       ?g_PXTanCoefficients0@aos@shdfnd@physx@@3UPX_VECTORF32@123@B 10034fe0     CctCharacterController.obj
 0002:00001000       ?g_PXTanCoefficients1@aos@shdfnd@physx@@3UPX_VECTORF32@123@B 10035000     CctCharacterController.obj
 0002:00001020       ?g_PXTanCoefficients2@aos@shdfnd@physx@@3UPX_VECTORF32@123@B 10035020     CctCharacterController.obj
 0002:00001040       ?g_PXASinCoefficients0@aos@shdfnd@physx@@3UPX_VECTORF32@123@B 10035040     CctCharacterController.obj
 0002:00001060       ?g_PXASinCoefficients1@aos@shdfnd@physx@@3UPX_VECTORF32@123@B 10035060     CctCharacterController.obj
 0002:00001080       ?g_PXASinCoefficients2@aos@shdfnd@physx@@3UPX_VECTORF32@123@B 10035080     CctCharacterController.obj
 0002:000010a0       ?g_PXATanCoefficients0@aos@shdfnd@physx@@3UPX_VECTORF32@123@B 100350a0     CctCharacterController.obj
 0002:000010c0       ?g_PXATanCoefficients1@aos@shdfnd@physx@@3UPX_VECTORF32@123@B 100350c0     CctCharacterController.obj
 0002:000010e0       ?g_PXATanCoefficients2@aos@shdfnd@physx@@3UPX_VECTORF32@123@B 100350e0     CctCharacterController.obj
 0002:00001100       ?g_PXSinEstCoefficients@aos@shdfnd@physx@@3UPX_VECTORF32@123@B 10035100     CctCharacterController.obj
 0002:00001120       ?g_PXCosEstCoefficients@aos@shdfnd@physx@@3UPX_VECTORF32@123@B 10035120     CctCharacterController.obj
 0002:00001140       ?g_PXTanEstCoefficients@aos@shdfnd@physx@@3UPX_VECTORF32@123@B 10035140     CctCharacterController.obj
 0002:00001160       ?g_PXATanEstCoefficients@aos@shdfnd@physx@@3UPX_VECTORF32@123@B 10035160     CctCharacterController.obj
 0002:00001180       ?g_PXASinEstCoefficients@aos@shdfnd@physx@@3UPX_VECTORF32@123@B 10035180     CctCharacterController.obj
 0002:000011a0       ?g_PXASinEstConstants@aos@shdfnd@physx@@3UPX_VECTORF32@123@B 100351a0     CctCharacterController.obj
 0002:000011c0       ?g_PXPiConstants0@aos@shdfnd@physx@@3UPX_VECTORF32@123@B 100351c0     CctCharacterController.obj
 0002:000011e0       ?g_PXReciprocalTwoPi@aos@shdfnd@physx@@3UPX_VECTORF32@123@B 100351e0     CctCharacterController.obj
 0002:00001200       ?g_PXTwoPi@aos@shdfnd@physx@@3UPX_VECTORF32@123@B 10035200     CctCharacterController.obj
 0002:00001218       ??_C@_0FI@OACHCHPD@C?3?2Users?2jesse?4farag?2Desktop?2Phy@ 10035218     CctCharacterController.obj
 0002:00001284       ??_C@_0M@BJFDEEID@q0?4isSane?$CI?$CJ?$AA@ 10035284     CctCharacterController.obj
 0002:00001294       ??_C@_0L@NKGFAGDB@x?4isSane?$CI?$CJ?$AA@ 10035294     CctCharacterController.obj
 0002:000012a4       ??_C@_0L@EGHDLJIP@isFinite?$CI?$CJ?$AA@ 100352a4     CctCharacterController.obj
 0002:000012b4       ??_C@_0N@PMAOLNPB@src?4isSane?$CI?$CJ?$AA@ 100352b4     CctCharacterController.obj
 0002:000012c4       ??_C@_08ECJOCDKG@isSane?$CI?$CJ?$AA@ 100352c4     CctCharacterController.obj
 0002:000012d0       ??_7?$PxHitCallback@UPxRaycastHit@physx@@@physx@@6B@ 100352d0     CctCharacterController.obj
 0002:000012e0       ??_7?$PxHitBuffer@UPxRaycastHit@physx@@@physx@@6B@ 100352e0     CctCharacterController.obj
 0002:000012f0       ??_7PxQueryFilterCallback@physx@@6B@ 100352f0     CctCharacterController.obj
 0002:00001300       ??_C@_01GBGANLPD@0?$AA@    10035300     CctCharacterController.obj
 0002:00001308       ??_C@_0FG@KBAAAIP@c?3?2users?2jesse?4farag?2desktop?2phy@ 10035308     CctCharacterController.obj
 0002:00001370       ??_C@_09GLGJMIMJ@isValid?$CI?$CJ?$AA@ 10035370     CctCharacterController.obj
 0002:00001380       ??_C@_0GP@KPPKOLFC@c?3?2users?2jesse?4farag?2desktop?2phy@ 10035380     CctCharacterController.obj
 0002:00001408       ??_C@_0O@PJIOIGML@index?$DM?$DN0xffff?$AA@ 10035408     CctCharacterController.obj
 0002:00001418       ??_C@_0BE@HCFLEHME@?$CIPxU32?$CJtype?$DM?$DN0xffff?$AA@ 10035418     CctCharacterController.obj
 0002:00001430       ??_C@_0DN@CCDLNKB@?4?4?2?4?4?2PhysXCharacterKinematic?2sr@ 10035430     CctCharacterController.obj
 0002:0000147c       ??_C@_0CJ@IKHMJDFI@volume?9?$DOgetType?$CI?$CJ?$DN?$DNSweptVolumeTy@ 1003547c     CctCharacterController.obj
 0002:000014b0       ??_C@_0CI@GAJNEGBI@geom?9?$DOmType?$DN?$DNTouchedGeomType?3?3eU@ 100354b0     CctCharacterController.obj
 0002:000014e0       ??_C@_0CM@GPMPGHMM@geom?9?$DOmType?$DN?$DNTouchedGeomType?3?3eU@ 100354e0     CctCharacterController.obj
 0002:00001514       ??_C@_0BM@PIBPPICD@sweepHit?4faceIndex?5?$DM?5nbTris?$AA@ 10035514     CctCharacterController.obj
 0002:00001538       ??_C@_0CE@HELNLPHM@geom?9?$DOmType?$DN?$DNTouchedGeomType?3?3eM@ 10035538     CctCharacterController.obj
 0002:00001564       ??_C@_0CN@HICDABOB@volume?9?$DOgetType?$CI?$CJ?$DN?$DNSweptVolumeTy@ 10035564     CctCharacterController.obj
 0002:0000159c       ??_C@_0CD@MCGKGDGK@geom?9?$DOmType?$DN?$DNTouchedGeomType?3?3eB@ 1003559c     CctCharacterController.obj
 0002:000015c8       ??_C@_0CG@LLMCKHDB@geom?9?$DOmType?$DN?$DNTouchedGeomType?3?3eS@ 100355c8     CctCharacterController.obj
 0002:000015f8       ??_C@_0CH@PDFKDOGO@geom?9?$DOmType?$DN?$DNTouchedGeomType?3?3eC@ 100355f8     CctCharacterController.obj
 0002:00001628       ??_C@_0N@MFKFIMLH@touchedActor?$AA@ 10035628     CctCharacterController.obj
 0002:00001638       ??_C@_0N@IJFFNJEA@touchedShape?$AA@ 10035638     CctCharacterController.obj
 0002:00001648       ??_C@_0CI@PHBIPOMN@volume?4getType?$CI?$CJ?$DN?$DNSweptVolumeTyp@ 10035648     CctCharacterController.obj
 0002:00001678       ??_C@_0M@GAENHLJE@depth?$DO?$DN0?40f?$AA@ 10035678     CctCharacterController.obj
 0002:00001688       ??_C@_0P@IIJOLIBL@mtd?4isFinite?$CI?$CJ?$AA@ 10035688     CctCharacterController.obj
 0002:0000169c       ??_C@_0BC@ELKFBCAO@PxIsFinite?$CIdepth?$CJ?$AA@ 1003569c     CctCharacterController.obj
 0002:000016b4       ??_C@_0P@GKPKEDCL@sweepTestTrigs?$AA@ 100356b4     CctCharacterController.obj
 0002:000016c8       ??_C@_0BJ@ONMIBLA@sweepTestTriangleIndices?$AA@ 100356c8     CctCharacterController.obj
 0002:000016e8       ??_C@_0BA@MNOANCHM@sweepTestStream?$AA@ 100356e8     CctCharacterController.obj
 0002:000016fc       ??_C@_0BP@HPNLMLEJ@obstacleHit?4distance?$DM?$DNdistance?$AA@ 100356fc     CctCharacterController.obj
 0002:00001724       ??_C@_0CI@GHLNKOJE@worldTemporalBox?4isInside?$CImCache@ 10035724     CctCharacterController.obj
 0002:00001754       ??_C@_0CE@KHMGPOAO@mTriangleIndices?4size?$CI?$CJ?$DN?$DNmNbCach@ 10035754     CctCharacterController.obj
 0002:00001780       ??_C@_07GDNEKBEC@C?4mGeom?$AA@ 10035780     CctCharacterController.obj
 0002:0000178c       ??_7ControllerFilter@@6B@  1003578c     CctCharacterController.obj
 0002:000017a0       ??_C@_0FM@ODFOFIFF@?$CBmCctModule?4mTouchedShape?5?$CG?$CG?5?$CImC@ 100357a0     CctCharacterController.obj
 0002:00001810       ??_C@_0BA@PFLCEBBK@hit?4block?4shape?$AA@ 10035810     CctCharacterController.obj
 0002:00001824       ??_C@_0BA@LJECBEON@hit?4block?4actor?$AA@ 10035824     CctCharacterController.obj
 0002:00001838       ??_C@_0CG@GNJEGHJI@hit?4block?4distance?$DM?$DNprobeLength?$CL@ 10035838     CctCharacterController.obj
 0002:00001868       ??_C@_0CI@KOAHEKEJ@obstacleHit?4distance?$DM?$DNprobeLengt@ 10035868     CctCharacterController.obj
 0002:00001898       ??_C@_0FL@CLNJAPLP@mCctModule?4mTouchedShape?5?$HM?$HM?5?$CImCc@ 10035898     CctCharacterController.obj
 0002:00001908       ??_C@_0BA@ONBGHLD@touchedObstacle?$AA@ 10035908     CctCharacterController.obj
 0002:0000191c       ??_C@_0BE@LBOOBFNF@?$CBboxUserData?4size?$CI?$CJ?$AA@ 1003591c     CctCharacterController.obj
 0002:00001934       ??_C@_0O@CDECJDME@?$CBboxes?4size?$CI?$CJ?$AA@ 10035934     CctCharacterController.obj
 0002:00001944       ??_C@_0BI@MHBCHGEC@?$CBcapsuleUserData?4size?$CI?$CJ?$AA@ 10035944     CctCharacterController.obj
 0002:00001960       ??_C@_0BB@FCMKKCBJ@?$CBcapsules?4size?$CI?$CJ?$AA@ 10035960     CctCharacterController.obj
 0002:00001978       ??_C@_0FL@EPFOMNOP@C?3?2Users?2jesse?4farag?2Desktop?2Phy@ 10035978     CctCharacterController.obj
 0002:000019e8       ??_C@_09GCLCCGEM@i?5?$DM?5mSize?$AA@ 100359e8     CctCharacterController.obj
 0002:000019f4       ??_C@_0BA@MNMBDHBE@size?$DM?$DNmCapacity?$AA@ 100359f4     CctCharacterController.obj
 0002:00001a08       ??_C@_0EP@HLPHNEOO@c?3?2users?2jesse?4farag?2desktop?2phy@ 10035a08     CctCharacterController.obj
 0002:00001a68       ??_C@_0CP@NAHMKKEN@index?5?$DM?5getNbTouches?$CI?$CJ?5?$CL?5PxU32?$CIt@ 10035a68     CctCharacterController.obj
 0002:00001aa0       ??_C@_0CP@CPGGIPKL@?$CI?$CBcapacity?$CJ?5?$HM?$HM?5?$CInewData?5?$CG?$CG?5?$CInewD@ 10035aa0     CctCharacterController.obj
 0002:00001ad8       ??_C@_0BM@BMFMDKFG@this?9?$DOcapacity?$CI?$CJ?5?$DM?5capacity?$AA@ 10035ad8     CctCharacterController.obj
 0002:00001b00       __real@0000000000000000    10035b00     CctCharacterController.obj
 0002:00001b0c       __real@3a83126f            10035b0c     CctCharacterController.obj
 0002:00001b10       __real@3c23d70a            10035b10     CctCharacterController.obj
 0002:00001b18       __real@3eb0c6f7a0b5ed8d    10035b18     CctCharacterController.obj
 0002:00001b24       __real@3ee66666            10035b24     CctCharacterController.obj
 0002:00001b28       __real@3f800000            10035b28     CctCharacterController.obj
 0002:00001b2c       __real@3fc00000            10035b2c     CctCharacterController.obj
 0002:00001b30       __real@40000000            10035b30     CctCharacterController.obj
 0002:00001b38       __real@4024000000000000    10035b38     CctCharacterController.obj
 0002:00001b44       __real@7e7fffff            10035b44     CctCharacterController.obj
 0002:00001b48       __real@7f7fffff            10035b48     CctCharacterController.obj
 0002:00001b50       __real@7fefffffffffffff    10035b50     CctCharacterController.obj
 0002:00001b5c       __real@ba83126f            10035b5c     CctCharacterController.obj
 0002:00001b60       __real@fe7fffff            10035b60     CctCharacterController.obj
 0002:00001b68       __real@ffefffffffffffff    10035b68     CctCharacterController.obj
 0002:00001b80       __xmm@80000000800000008000000080000000 10035b80     CctCharacterController.obj
 0002:00001b98       ??_C@_0FD@JAFCMONO@C?3?2Users?2jesse?4farag?2Desktop?2Phy@ 10035b98     CctCharacterControllerCallbacks.obj
 0002:00001bfc       ??_C@_0BF@NNGJDGAP@index?$DO?$DN0?5?$CG?$CG?5index?$DM?$DN2?$AA@ 10035bfc     CctCharacterControllerCallbacks.obj
 0002:00001c18       ??_7?$PxHitCallback@UPxOverlapHit@physx@@@physx@@6B@ 10035c18     CctCharacterControllerCallbacks.obj
 0002:00001c28       ??_7?$PxHitBuffer@UPxOverlapHit@physx@@@physx@@6B@ 10035c28     CctCharacterControllerCallbacks.obj
 0002:00001c38       ??_C@_0EG@BDPBDCDH@?4?4?2?4?4?2PhysXCharacterKinematic?2sr@ 10035c38     CctCharacterControllerCallbacks.obj
 0002:00001c8c       ??_C@_0DI@JEIEIFFC@planeShape?9?$DOgetGeometryType?$CI?$CJ?5?$DN?$DN@ 10035c8c     CctCharacterControllerCallbacks.obj
 0002:00001cd0       ??_C@_0DK@DKFHFJAH@sphereShape?9?$DOgetGeometryType?$CI?$CJ?5?$DN@ 10035cd0     CctCharacterControllerCallbacks.obj
 0002:00001d18       ??_C@_0DM@CFAOBFIC@capsuleShape?9?$DOgetGeometryType?$CI?$CJ?5@ 10035d18     CctCharacterControllerCallbacks.obj
 0002:00001d60       ??_C@_0DE@KNPLDBPE@boxShape?9?$DOgetGeometryType?$CI?$CJ?5?$DN?$DN?5P@ 10035d60     CctCharacterControllerCallbacks.obj
 0002:00001da0       ??_C@_0DO@NNKEOCBE@meshShape?9?$DOgetGeometryType?$CI?$CJ?5?$DN?$DN?5@ 10035da0     CctCharacterControllerCallbacks.obj
 0002:00001dec       ??_C@_0DL@CCMNBOHE@hfShape?9?$DOgetGeometryType?$CI?$CJ?5?$DN?$DN?5Px@ 10035dec     CctCharacterControllerCallbacks.obj
 0002:00001e34       ??_C@_0DO@HGDLFPJM@convexShape?9?$DOgetGeometryType?$CI?$CJ?5?$DN@ 10035e34     CctCharacterControllerCallbacks.obj
 0002:00001e80       ??_C@_0O@CCMLNFEO@cg?4convexMesh?$AA@ 10035e80     CctCharacterControllerCallbacks.obj
 0002:00001e90       ??_C@_08BPIOMALF@userData?$AA@ 10035e90     CctCharacterControllerCallbacks.obj
 0002:00001e9c       ??_C@_0CP@FNNCCCAL@index?$DMcontroller?9?$DOmManager?9?$DOgetN@ 10035e9c     CctCharacterControllerCallbacks.obj
 0002:00001ed4       ??_C@_0BI@ODLPKEII@internalData?9?$DOobstacles?$AA@ 10035ed4     CctCharacterControllerCallbacks.obj
 0002:00001ef0       ??_C@_0DE@DDAKFDEF@index?$DMinternalData?9?$DOobstacles?9?$DOm@ 10035ef0     CctCharacterControllerCallbacks.obj
 0002:00001f30       ??_C@_0DI@GFNCLEGH@index?$DMinternalData?9?$DOobstacles?9?$DOm@ 10035f30     CctCharacterControllerCallbacks.obj
 0002:00001f74       __real@3f7ff972            10035f74     CctCharacterControllerCallbacks.obj
 0002:00001f80       __xmm@80000000000000008000000000000000 10035f80     CctCharacterControllerCallbacks.obj
 0002:00001fb4       ??_C@_08LJALFGJN@index?$DM?$DN2?$AA@ 10035fb4     CctCharacterControllerManager.obj
 0002:00001fc0       ??_7PxRenderBuffer@physx@@6B@ 10035fc0     CctCharacterControllerManager.obj
 0002:00001ff4       ??_7RenderBuffer@Cm@physx@@6B@ 10035ff4     CctCharacterControllerManager.obj
 0002:00002028       ??_C@_0BD@LANCFJDL@renderBufferPoints?$AA@ 10036028     CctCharacterControllerManager.obj
 0002:00002040       ??_C@_0BC@OOFKEPCD@renderBufferLines?$AA@ 10036040     CctCharacterControllerManager.obj
 0002:00002058       ??_C@_0BG@IFGFFBGL@renderBufferTriangles?$AA@ 10036058     CctCharacterControllerManager.obj
 0002:00002074       ??_C@_0BC@KMLJODNA@renderBufferTexts?$AA@ 10036074     CctCharacterControllerManager.obj
 0002:0000208c       ??_C@_0BE@CNABNMDL@renderBufferCharBuf?$AA@ 1003608c     CctCharacterControllerManager.obj
 0002:000020a4       ??_7CharacterControllerManager@Cct@physx@@6B@ 100360a4     CctCharacterControllerManager.obj
 0002:00002100       ??_C@_0EE@IHHKBLHK@?4?4?2?4?4?2PhysXCharacterKinematic?2sr@ 10036100     CctCharacterControllerManager.obj
 0002:00002154       ??_C@_0DJ@FJGFFNLM@PxControllerManager?3?3getControll@ 10036154     CctCharacterControllerManager.obj
 0002:00002198       ??_C@_0BE@GJLBACLN@mControllers?$FLindex?$FN?$AA@ 10036198     CctCharacterControllerManager.obj
 0002:000021b0       ??_C@_0EJ@KDOFHNEM@INTERNAL?5ERROR?5?9?5invalid?5CCT?5typ@ 100361b0     CctCharacterControllerManager.obj
 0002:00002208       ??_C@_05HHJOEFFG@nb?$DN?$DN1?$AA@ 10036208     CctCharacterControllerManager.obj
 0002:00002210       ??_C@_0DO@NLBEEDJJ@PxControllerManager?3?3getObstacle@ 10036210     CctCharacterControllerManager.obj
 0002:0000225c       ??_C@_0BJ@KJGCJBBH@mObstacleContexts?$FLindex?$FN?$AA@ 1003625c     CctCharacterControllerManager.obj
 0002:0000227c       ??_C@_0DH@IABGKCMP@mObstacleContexts?4find?$CI?$CGoc?$CJ?5?$CB?$DN?5m@ 1003627c     CctCharacterControllerManager.obj
 0002:000022c0       ??_C@_0P@MMCGCBLL@?$CBmBoxes?4size?$CI?$CJ?$AA@ 100362c0     CctCharacterControllerManager.obj
 0002:000022d4       ??_C@_0BC@JBELOEOA@?$CBmCapsules?4size?$CI?$CJ?$AA@ 100362d4     CctCharacterControllerManager.obj
 0002:000022ec       ??_C@_07LNPFLBPN@entity0?$AA@ 100362ec     CctCharacterControllerManager.obj
 0002:000022f8       ??_C@_07KEOOIALM@entity1?$AA@ 100362f8     CctCharacterControllerManager.obj
 0002:00002304       ??_C@_0CM@LDNMFPKK@entity0?9?$DOmType?$DN?$DNPxControllerShap@ 10036304     CctCharacterControllerManager.obj
 0002:00002338       ??_C@_0CM@DOFEKCEI@entity1?9?$DOmType?$DN?$DNPxControllerShap@ 10036338     CctCharacterControllerManager.obj
 0002:0000236c       ??_C@_0DA@EMJKANDJ@CharacterControllerManager?3?3comp@ 1003636c     CctCharacterControllerManager.obj
 0002:000023a8       ??_C@_07PGKBDHFC@i?$DMmSize?$AA@ 100363a8     CctCharacterControllerManager.obj
 0002:000023b8       ??_C@_0GD@GGGAABHN@c?3?2users?2jesse?4farag?2desktop?2phy@ 100363b8     CctCharacterControllerManager.obj
 0002:00002430       ??_C@_0EK@CFJIEPPJ@?$CImFreeList?5?$DN?$DN?5EOL?$CJ?5?$HM?$HM?5?$CIcompactin@ 10036430     CctCharacterControllerManager.obj
 0002:00002488       ??_C@_09PJMFFBHC@?$CKptr?$CB?$DNEOL?$AA@ 10036488     CctCharacterControllerManager.obj
 0002:00002494       ??_C@_0BB@GDPMDOF@?$CBfreeListEmpty?$CI?$CJ?$AA@ 10036494     CctCharacterControllerManager.obj
 0002:000024a8       ??_C@_0BL@DHJNKJLG@mFreeList?5?$DN?$DN?5mEntriesCount?$AA@ 100364a8     CctCharacterControllerManager.obj
 0002:000024c8       ??_C@_08DELPPNON@hashBase?$AA@ 100364c8     CctCharacterControllerManager.obj
 0002:000024d4       ??_C@_0BM@OIFKLHDN@?$DMallocation?5names?5disabled?$DO?$AA@ 100364d4     CctCharacterControllerManager.obj
 0002:000024f8       ??_C@_0BB@NINNBHIG@?$CB?$CIsize?$CG?$CIsize?91?$CJ?$CJ?$AA@ 100364f8     CctCharacterControllerManager.obj
 0002:0000250c       ??_C@_09LAGLDPIH@newBuffer?$AA@ 1003650c     CctCharacterControllerManager.obj
 0002:00002518       ??_C@_0BP@CPGKEPEI@compacting?5?$HM?$HM?5mFreeList?5?$DN?$DN?5EOL?$AA@ 10036518     CctCharacterControllerManager.obj
 0002:00002540       ??_C@_0BE@JIMKLMPE@index?5?$CB?$DN?5newHash?$FLh?$FN?$AA@ 10036540     CctCharacterControllerManager.obj
 0002:00002558       ??_C@_0BD@IHJIMOLE@mFreeList?5?$CB?$DN?5end?91?$AA@ 10036558     CctCharacterControllerManager.obj
 0002:00002570       __real@358637bd            10036570     CctCharacterControllerManager.obj
 0002:00002574       __real@3f400000            10036574     CctCharacterControllerManager.obj
 0002:00002578       __real@40800000            10036578     CctCharacterControllerManager.obj
 0002:00002580       __xmm@41f00000000000000000000000000000 10036580     CctCharacterControllerManager.obj
 0002:00002594       ??_7PxDeletionListener@physx@@6B@ 10036594     CctController.obj
 0002:000025a0       ??_7Controller@Cct@physx@@6B@ 100365a0     CctController.obj
 0002:000025b8       ??_C@_0DE@LBFOOJJE@?4?4?2?4?4?2PhysXCharacterKinematic?2sr@ 100365b8     CctController.obj
 0002:000025f8       ??_C@_01LKDEMHDF@s?$AA@    100365f8     CctController.obj
 0002:000025fc       ??_C@_0DE@PHNAMEOL@deletionEvent?5?$DN?$DN?5PxDeletionEvent@ 100365fc     CctController.obj
 0002:0000263c       ??_C@_0CF@LJAGPAMD@CCT?3?5up?5direction?5must?5be?5normal@ 1003663c     CctController.obj
 0002:00002668       ??_C@_0FL@IOBGBBOM@c?3?2users?2jesse?4farag?2desktop?2phy@ 10036668     CctController.obj
 0002:000026d8       __real@38d1b717            100366d8     CctController.obj
 0002:000026dc       __real@3dcccccd            100366dc     CctController.obj
 0002:000026e0       __real@bf7fff58            100366e0     CctController.obj
 0002:000026e4       ??_7PxObstacleContext@physx@@6B@ 100366e4     CctObstacleContext.obj
 0002:00002710       ??_C@_0FP@GJPLPNBF@c?3?2users?2jesse?4farag?2desktop?2phy@ 10036710     CctObstacleContext.obj
 0002:00002784       ??_C@_0O@JEHCGDAJ@value?$DM?$DN0xffff?$AA@ 10036784     CctObstacleContext.obj
 0002:00002794       ??_7ObstacleContext@Cct@physx@@6B@ 10036794     CctObstacleContext.obj
 0002:000027c0       ??_C@_0O@IPJBGLCC@HandleManager?$AA@ 100367c0     CctObstacleContext.obj
 0002:000027d0       ??_C@_0DJ@FPEJDNHL@?4?4?2?4?4?2PhysXCharacterKinematic?2sr@ 100367d0     CctObstacleContext.obj
 0002:00002814       ??_C@_0CP@CDNCDJDD@Internal?5error?5?9?564K?5objects?5in?5@ 10036814     CctObstacleContext.obj
 0002:0000284c       ??_C@_0L@PMMEKFHC@index?$DMsize?$AA@ 1003684c     CctObstacleContext.obj
 0002:0000285c       ??_C@_0BJ@BENGNNK@type?$DN?$DNobstacle?4getType?$CI?$CJ?$AA@ 1003685c     CctObstacleContext.obj
 0002:0000287c       ??_C@_0CF@CEPGALDL@mBoxObstacles?$FLindex?$FN?4mHandle?$DN?$DNha@ 1003687c     CctObstacleContext.obj
 0002:000028a8       ??_C@_0CJ@OHPLBPIL@mCapsuleObstacles?$FLindex?$FN?4mHandle@ 100368a8     CctObstacleContext.obj
 0002:000028dc       ??_C@_0CF@GBMJOHHH@geomType?5?$DN?$DN?5PxGeometryType?3?3eCAP@ 100368dc     CctObstacleContext.obj
 0002:00002908       ??_C@_0FL@IHHLBIJF@c?3?2users?2jesse?4farag?2desktop?2phy@ 10036908     CctObstacleContext.obj
 0002:00002978       ??_C@_06DJIHEMFI@status?$AA@ 10036978     CctObstacleContext.obj
 0002:00002980       ??_7SweptBox@Cct@physx@@6B@ 10036980     CctSweptBox.obj
 0002:0000298c       ??_7SweptCapsule@Cct@physx@@6B@ 1003698c     CctSweptCapsule.obj
 0002:00002998       ??_7SweptVolume@Cct@physx@@6B@ 10036998     CctSweptVolume.obj
 0002:000029a4       ??_C@_0BP@LLBHALBD@PxMeshOverlapUtil?3?3findOverlap?$AA@ 100369a4     PhysX3ExtensionsDEBUG:ExtTriangleMeshExt.obj
 0002:000029cc       ??_C@_0DB@HFONPIBD@?4?4?2?4?4?2PhysXExtensions?2src?2ExtTri@ 100369cc     PhysX3ExtensionsDEBUG:ExtTriangleMeshExt.obj
 0002:00002a08       ??_C@_0O@IICGINDC@nbTouchedTris?$AA@ 10036a08     PhysX3ExtensionsDEBUG:ExtTriangleMeshExt.obj
 0002:00002a18       ??_C@_09IOBMEPPH@?$CBoverflow?$AA@ 10036a18     PhysX3ExtensionsDEBUG:ExtTriangleMeshExt.obj
 0002:00002a28       ??_C@_0FD@OMCAOENB@c?3?2users?2jesse?4farag?2desktop?2phy@ 10036a28     PhysX3ExtensionsDEBUG:ExtRigidBodyExt.obj
 0002:00002a90       ??_C@_0FI@HJAHHFLM@c?3?2users?2jesse?4farag?2desktop?2phy@ 10036a90     PhysX3ExtensionsDEBUG:ExtRigidBodyExt.obj
 0002:00002afc       ??_C@_0BB@GKJHIFOF@bounds?4isValid?$CI?$CJ?$AA@ 10036afc     PhysX3ExtensionsDEBUG:ExtRigidBodyExt.obj
 0002:00002b10       ??_7?$PxHitCallback@UPxSweepHit@physx@@@physx@@6B@ 10036b10     PhysX3ExtensionsDEBUG:ExtRigidBodyExt.obj
 0002:00002b20       ??_7?$PxHitBuffer@UPxSweepHit@physx@@@physx@@6B@ 10036b20     PhysX3ExtensionsDEBUG:ExtRigidBodyExt.obj
 0002:00002b30       ??_C@_0GF@OIDPBHOO@c?3?2users?2jesse?4farag?2desktop?2phy@ 10036b30     PhysX3ExtensionsDEBUG:ExtRigidBodyExt.obj
 0002:00002bac       ??_C@_0BB@PHBMLPFB@inertia?4x?5?$CB?$DN?50?40?$AA@ 10036bac     PhysX3ExtensionsDEBUG:ExtRigidBodyExt.obj
 0002:00002bc0       ??_C@_0BB@OAGHKLBC@inertia?4y?5?$CB?$DN?50?40?$AA@ 10036bc0     PhysX3ExtensionsDEBUG:ExtRigidBodyExt.obj
 0002:00002bd4       ??_C@_0BB@NJOKJHNH@inertia?4z?5?$CB?$DN?50?40?$AA@ 10036bd4     PhysX3ExtensionsDEBUG:ExtRigidBodyExt.obj
 0002:00002be8       ??_C@_0BD@OPJGPFFH@inertia?4isFinite?$CI?$CJ?$AA@ 10036be8     PhysX3ExtensionsDEBUG:ExtRigidBodyExt.obj
 0002:00002c00       ??_C@_0EI@EJLALNOJ@mI?4column0?4isFinite?$CI?$CJ?5?$CG?$CG?5mI?4colu@ 10036c00     PhysX3ExtensionsDEBUG:ExtRigidBodyExt.obj
 0002:00002c58       ??_C@_0BC@OFOGBKJM@PxIsFinite?$CImMass?$CJ?$AA@ 10036c58     PhysX3ExtensionsDEBUG:ExtRigidBodyExt.obj
 0002:00002c70       ??_C@_0O@PGJGBBMD@mG?4isFinite?$CI?$CJ?$AA@ 10036c70     PhysX3ExtensionsDEBUG:ExtRigidBodyExt.obj
 0002:00002c80       ??_C@_0IE@PMLMABKM@?$CFs?3?5inertia?5tensor?5has?5negative?5@ 10036c80     PhysX3ExtensionsDEBUG:ExtRigidBodyExt.obj
 0002:00002d20       ??_C@_0CO@PEEEKJKP@?4?4?2?4?4?2PhysXExtensions?2src?2ExtRig@ 10036d20     PhysX3ExtensionsDEBUG:ExtRigidBodyExt.obj
 0002:00002d58       ??_C@_0BG@FAEGGHDL@?$CBdensities?5?$HM?$HM?5?$CBmasses?$AA@ 10036d58     PhysX3ExtensionsDEBUG:ExtRigidBodyExt.obj
 0002:00002d74       ??_C@_0DC@HOEEJLOF@?$CIdensities?5?$HM?$HM?5masses?$CJ?5?$CG?$CG?5?$CIdensit@ 10036d74     PhysX3ExtensionsDEBUG:ExtRigidBodyExt.obj
 0002:00002db0       ??_C@_08MJBGFJN@PxShape?$CK?$AA@ 10036db0     PhysX3ExtensionsDEBUG:ExtRigidBodyExt.obj
 0002:00002dc0       ??_C@_0ED@GFJAKEFC@computeMassAndInertia?3?5Provided?5@ 10036dc0     PhysX3ExtensionsDEBUG:ExtRigidBodyExt.obj
 0002:00002e10       ??_C@_0FL@MGPHIFPL@computeMassAndInertia?3?5Not?5enoug@ 10036e10     PhysX3ExtensionsDEBUG:ExtRigidBodyExt.obj
 0002:00002e80       ??_C@_02MFDMBIJM@ok?$AA@   10036e80     PhysX3ExtensionsDEBUG:ExtRigidBodyExt.obj
 0002:00002e88       ??_C@_0ED@IINBLCPB@computeMassAndInertia?3?5Dynamic?5a@ 10036e88     PhysX3ExtensionsDEBUG:ExtRigidBodyExt.obj
 0002:00002ed8       ??_C@_0CF@NFENOJIA@PxRigidBodyExt?3?3updateMassAndIne@ 10036ed8     PhysX3ExtensionsDEBUG:ExtRigidBodyExt.obj
 0002:00002f08       ??_C@_0FC@JIKFFKAL@?$CFs?3?5Mass?5and?5inertia?5computation@ 10036f08     PhysX3ExtensionsDEBUG:ExtRigidBodyExt.obj
 0002:00002f70       ??_C@_0ED@BHIJHOEP@?$CFs?3?5No?5density?5specified?0?5settin@ 10036f70     PhysX3ExtensionsDEBUG:ExtRigidBodyExt.obj
 0002:00002fc0       ??_C@_0BC@LCFLEJMO@orient?4isFinite?$CI?$CJ?$AA@ 10036fc0     PhysX3ExtensionsDEBUG:ExtRigidBodyExt.obj
 0002:00002fd8       ??_C@_0BG@MOLDNCJJ@diagTensor?4isFinite?$CI?$CJ?$AA@ 10036fd8     PhysX3ExtensionsDEBUG:ExtRigidBodyExt.obj
 0002:00002ff4       ??_C@_0BE@IMLKJJIO@PxIsFinite?$CImassOut?$CJ?$AA@ 10036ff4     PhysX3ExtensionsDEBUG:ExtRigidBodyExt.obj
 0002:0000300c       ??_C@_0CI@NNBNKKJG@PxRigidBodyExt?3?3setMassAndUpdate@ 1003700c     PhysX3ExtensionsDEBUG:ExtRigidBodyExt.obj
 0002:00003040       ??_C@_0EA@JNKKHEHF@?$CFs?3?5No?5mass?5specified?0?5setting?5m@ 10037040     PhysX3ExtensionsDEBUG:ExtRigidBodyExt.obj
 0002:00003090       ??_C@_0FI@DKLFOMEB@PxRigidBodyExt?3?3addForce?5methods@ 10037090     PhysX3ExtensionsDEBUG:ExtRigidBodyExt.obj
 0002:000030fc       ??_C@_0O@NBMIOIOP@shape?5?$CB?$DN?5NULL?$AA@ 100370fc     PhysX3ExtensionsDEBUG:ExtRigidBodyExt.obj
 0002:0000310c       ??_C@_0BB@BDAMNKLN@sourceIndex?5?$DO?$DN?5j?$AA@ 1003710c     PhysX3ExtensionsDEBUG:ExtRigidBodyExt.obj
 0002:00003120       ??_C@_0DK@HKHACFOF@sumNbResults?5?$DO?$DN?50?5?$CG?$CG?5sumNbResult@ 10037120     PhysX3ExtensionsDEBUG:ExtRigidBodyExt.obj
 0002:00003168       __real@3eaaaaab            10037168     PhysX3ExtensionsDEBUG:ExtRigidBodyExt.obj
 0002:0000316c       __real@3ecccccd            1003716c     PhysX3ExtensionsDEBUG:ExtRigidBodyExt.obj
 0002:00003170       __real@3f2aaaab            10037170     PhysX3ExtensionsDEBUG:ExtRigidBodyExt.obj
 0002:00003174       __real@3f8147ae            10037174     PhysX3ExtensionsDEBUG:ExtRigidBodyExt.obj
 0002:00003178       __real@40400000            10037178     PhysX3ExtensionsDEBUG:ExtRigidBodyExt.obj
 0002:0000317c       __real@40490fdb            1003717c     PhysX3ExtensionsDEBUG:ExtRigidBodyExt.obj
 0002:00003180       __real@40860a92            10037180     PhysX3ExtensionsDEBUG:ExtRigidBodyExt.obj
 0002:00003184       __real@41000000            10037184     PhysX3ExtensionsDEBUG:ExtRigidBodyExt.obj
 0002:00003188       __real@41400000            10037188     PhysX3ExtensionsDEBUG:ExtRigidBodyExt.obj
 0002:0000318c       __real@41700000            1003718c     PhysX3ExtensionsDEBUG:ExtRigidBodyExt.obj
 0002:00003230       ??_7type_info@@6B@         10037230     MSVCRTD:std_type_info_static.obj
 0002:00003238       __pDefaultRawDllMain       10037238     MSVCRTD:dll_dllmain.obj
 0002:00003238       __pRawDllMain              10037238     MSVCRTD:dll_dllmain.obj
 0002:00003254       ??_C@_0BJ@HEGAHDFO@Stack?5pointer?5corruption?$AA@ 10037254     MSVCRTD:_userapi_.obj
 0002:00003274       ??_C@_0CK@FEGOIOPB@Cast?5to?5smaller?5type?5causing?5los@ 10037274     MSVCRTD:_userapi_.obj
 0002:000032a8       ??_C@_0BI@CIGMDCBH@Stack?5memory?5corruption?$AA@ 100372a8     MSVCRTD:_userapi_.obj
 0002:000032c4       ??_C@_0CK@CNLNOEPB@Local?5variable?5used?5before?5initi@ 100372c4     MSVCRTD:_userapi_.obj
 0002:000032f8       ??_C@_0BP@OGBCLIBO@Stack?5around?5_alloca?5corrupted?$AA@ 100372f8     MSVCRTD:_userapi_.obj
 0002:000033e0       ??_C@_0NN@NGPKDKPD@The?5value?5of?5ESP?5was?5not?5properl@ 100373e0     MSVCRTD:_error_.obj
 0002:000034f0       ??_C@_0BBN@GPMLNJCF@A?5cast?5to?5a?5smaller?5data?5type?5ha@ 100374f0     MSVCRTD:_error_.obj
 0002:00003648       ??_C@_0BN@FFOINMNJ@Stack?5memory?5was?5corrupted?6?$AN?$AA@ 10037648     MSVCRTD:_error_.obj
 0002:0000366c       ??_C@_0DG@HKJMLLLP@A?5local?5variable?5was?5used?5before@ 1003766c     MSVCRTD:_error_.obj
 0002:000036ac       ??_C@_0CM@NGINOKPC@Stack?5memory?5around?5_alloca?5was?5@ 100376ac     MSVCRTD:_error_.obj
 0002:000036e0       ??_C@_0BO@GNIAFIKK@Unknown?5Runtime?5Check?5Error?6?$AN?$AA@ 100376e0     MSVCRTD:_error_.obj
 0002:00003708       ??_C@_1GM@OLMCBDMB@?$AAR?$AAu?$AAn?$AAt?$AAi?$AAm?$AAe?$AA?5?$AAC?$AAh?$AAe?$AAc?$AAk?$AA?5?$AAE?$AAr?$AAr?$AAo?$AAr?$AA?4?$AA?6?$AA?$AN?$AA?5?$AAU?$AAn?$AAa?$AAb?$AAl?$AAe?$AA?5?$AAt?$AAo@ 10037708     MSVCRTD:_error_.obj
 0002:00003790       ??_C@_1EA@NFKNIFJP@?$AAR?$AAu?$AAn?$AA?9?$AAT?$AAi?$AAm?$AAe?$AA?5?$AAC?$AAh?$AAe?$AAc?$AAk?$AA?5?$AAF?$AAa?$AAi?$AAl?$AAu?$AAr?$AAe?$AA?5?$AA?$CD?$AA?$CF?$AAd?$AA?5?$AA?9?$AA?5?$AA?$CF?$AAs?$AA?$AA@ 10037790     MSVCRTD:_error_.obj
 0002:000037dc       ??_C@_0BB@PFFGGCJP@Unknown?5Filename?$AA@ 100377dc     MSVCRTD:_error_.obj
 0002:000037f0       ??_C@_0BE@GNBOBNCK@Unknown?5Module?5Name?$AA@ 100377f0     MSVCRTD:_error_.obj
 0002:00003808       ??_C@_0CA@IODNCDPG@Run?9Time?5Check?5Failure?5?$CD?$CFd?5?9?5?$CFs?$AA@ 10037808     MSVCRTD:_error_.obj
 0002:00003830       ??_C@_0CG@IAFNJNEE@Stack?5corrupted?5near?5unknown?5var@ 10037830     MSVCRTD:_error_.obj
 0002:00003860       ??_C@_05MKKEDADM@?$CF?42X?5?$AA@ 10037860     MSVCRTD:_error_.obj
 0002:00003868       ??_C@_0EJ@LJKNEOLN@Stack?5area?5around?5_alloca?5memory@ 10037868     MSVCRTD:_error_.obj
 0002:000038c0       ??_C@_08OMAHNMHJ@?6Data?3?5?$DM?$AA@ 100378c0     MSVCRTD:_error_.obj
 0002:000038cc       ??_C@_0CK@DKGBICFE@?6Allocation?5number?5within?5this?5f@ 100378cc     MSVCRTD:_error_.obj
 0002:00003900       ??_C@_07DFDJCKFN@?6Size?3?5?$AA@ 10037900     MSVCRTD:_error_.obj
 0002:0000390c       ??_C@_0N@MHFFIMFG@?6Address?3?50x?$AA@ 1003790c     MSVCRTD:_error_.obj
 0002:00003920       ??_C@_0EI@CLEPFNGI@Stack?5area?5around?5_alloca?5memory@ 10037920     MSVCRTD:_error_.obj
 0002:00003978       ??_C@_0BC@HHMKLAND@?$CFs?$CFs?$CFp?$CFs?$CFzd?$CFs?$CFd?$CFs?$AA@ 10037978     MSVCRTD:_error_.obj
 0002:00003990       ??_C@_01EEMJAFIK@?6?$AA@   10037990     MSVCRTD:_error_.obj
 0002:00003994       ??_C@_02LLMPMKNF@?$DO?5?$AA@ 10037994     MSVCRTD:_error_.obj
 0002:00003998       ??_C@_08KJEDNCKC@?$CFs?$CFs?$CFs?$CFs?$AA@ 10037998     MSVCRTD:_error_.obj
 0002:000039a4       ??_C@_0DE@OHJBPMBP@A?5variable?5is?5being?5used?5without@ 100379a4     MSVCRTD:_error_.obj
 0002:00003a40       ??_C@_1EI@MLPKHBGE@?$AAa?$AAp?$AAi?$AA?9?$AAm?$AAs?$AA?9?$AAw?$AAi?$AAn?$AA?9?$AAc?$AAo?$AAr?$AAe?$AA?9?$AAr?$AAe?$AAg?$AAi?$AAs?$AAt?$AAr?$AAy?$AA?9?$AAl?$AA1?$AA?9?$AA1?$AA?9?$AA0?$AA?4@ 10037a40     MSVCRTD:_pdblkup_.obj
 0002:00003a98       ??_C@_1BK@JHLNAEJL@?$AAa?$AAd?$AAv?$AAa?$AAp?$AAi?$AA3?$AA2?$AA?4?$AAd?$AAl?$AAl?$AA?$AA@ 10037a98     MSVCRTD:_pdblkup_.obj
 0002:00003ab8       ??_C@_0O@COHOBMLB@RegOpenKeyExW?$AA@ 10037ab8     MSVCRTD:_pdblkup_.obj
 0002:00003ac8       ??_C@_0BB@GLNAEDBD@RegQueryValueExW?$AA@ 10037ac8     MSVCRTD:_pdblkup_.obj
 0002:00003adc       ??_C@_0M@HLOHPNFA@RegCloseKey?$AA@ 10037adc     MSVCRTD:_pdblkup_.obj
 0002:00003af0       ??_C@_1HE@EBEAGLFB@?$AAS?$AAO?$AAF?$AAT?$AAW?$AAA?$AAR?$AAE?$AA?2?$AAW?$AAo?$AAw?$AA6?$AA4?$AA3?$AA2?$AAN?$AAo?$AAd?$AAe?$AA?2?$AAM?$AAi?$AAc?$AAr?$AAo?$AAs?$AAo?$AAf?$AAt?$AA?2?$AAV@ 10037af0     MSVCRTD:_pdblkup_.obj
 0002:00003b7c       ??_C@_1BG@EABPBLLF@?$AAP?$AAr?$AAo?$AAd?$AAu?$AAc?$AAt?$AAD?$AAi?$AAr?$AA?$AA@ 10037b7c     MSVCRTD:_pdblkup_.obj
 0002:00003bbc       ??_C@_1BC@JINFINNJ@?$AAM?$AAS?$AAP?$AAD?$AAB?$AA1?$AA4?$AA0?$AA?$AA@ 10037bbc     MSVCRTD:_pdblkup_.obj
 0002:00003bd4       ??_C@_0BB@KCIACLNC@PDBOpenValidate5?$AA@ 10037bd4     MSVCRTD:_pdblkup_.obj
 0002:00003be8       ??_C@_01KDCPPGHE@r?$AA@    10037be8     MSVCRTD:_pdblkup_.obj
 0002:00003c38       __load_config_used         10037c38     MSVCRTD:loadcfg.obj
 0002:00003edc       ??_R4type_info@@6B@        10037edc     MSVCRTD:std_type_info_static.obj
 0002:00003ef4       ??_R3type_info@@8          10037ef4     MSVCRTD:std_type_info_static.obj
 0002:00003f08       ??_R2type_info@@8          10037f08     MSVCRTD:std_type_info_static.obj
 0002:00003f10       ??_R1A@?0A@EA@type_info@@8 10037f10     MSVCRTD:std_type_info_static.obj
 0002:00004040       ___safe_se_handler_table   10038040     <linker-defined>
 0002:000042fc       ___rtc_iaa                 100382fc     MSVCRTD:_initsect_.obj
 0002:0000453c       ___rtc_izz                 1003853c     MSVCRTD:_initsect_.obj
 0002:00004640       ___rtc_taa                 10038640     MSVCRTD:_initsect_.obj
 0002:00004880       ___rtc_tzz                 10038880     MSVCRTD:_initsect_.obj
 0003:0000003c       __fltused                  1003903c     MSVCRTD:fltused.obj
 0003:00000040       ___scrt_native_dllmain_reason 10039040     MSVCRTD:utility.obj
 0003:00000044       ___security_cookie_complement 10039044     MSVCRTD:gs_cookie.obj
 0003:00000048       ___security_cookie         10039048     MSVCRTD:gs_cookie.obj
 0003:00000050       ?_RTC_ErrorLevels@@3PAHA   10039050     MSVCRTD:_error_.obj
 0003:00000068       ___isa_enabled             10039068     MSVCRTD:_cpu_disp_.obj
 0003:0000006c       ___scrt_ucrt_dll_is_in_use 1003906c     MSVCRTD:ucrt_stubs.obj
 0003:00000178       ??_R0?AVCharacterControllerManager@Cct@physx@@@8 10039178     CctCharacterControllerManager.obj
 0003:000001b8       ??_R0?AVObstacleContext@Cct@physx@@@8 100391b8     CctCharacterControllerManager.obj
 0003:000001e8       ??_R0?AVCapsuleController@Cct@physx@@@8 100391e8     CctCharacterControllerManager.obj
 0003:0000021c       ??_R0?AVBoxController@Cct@physx@@@8 1003921c     CctCharacterControllerManager.obj
 0003:0000024c       ??_R0?AVRenderBuffer@Cm@physx@@@8 1003924c     CctCharacterControllerManager.obj
 0003:00000278       ??_R0?AVMutexImpl@shdfnd@physx@@@8 10039278     CctController.obj
 0003:000002a4       ??_R0?AVtype_info@@@8      100392a4     MSVCRTD:std_type_info_static.obj
 0003:000003d3       ?_ignore@?2???0PxTransform@physx@@QAE@ABVPxVec3@2@ABVPxQuat@2@@Z@4_NA 100393d3     CctCharacterController.obj
 0003:000003d4       ?_ignore@?2???DPxTransform@physx@@QBE?AV12@ABV12@@Z@4_NA 100393d4     CctCharacterController.obj
 0003:000003d5       ?_ignore@?2??transform@PxTransform@physx@@QBE?AVPxVec3@3@ABV43@@Z@4_NA 100393d5     CctCharacterController.obj
 0003:000003d6       ?_ignore@?2??transformInv@PxTransform@physx@@QBE?AVPxVec3@3@ABV43@@Z@4_NA 100393d6     CctCharacterController.obj
 0003:000003d7       ?_ignore@?2??transform@PxTransform@physx@@QBE?AV23@ABV23@@Z@4_NA 100393d7     CctCharacterController.obj
 0003:000003d8       ?_ignore@?3??transform@PxTransform@physx@@QBE?AV23@ABV23@@Z@4_NA 100393d8     CctCharacterController.obj
 0003:000003d9       ?_ignore@?2??getCenter@PxBounds3@physx@@QBE?AVPxVec3@3@XZ@4_NA 100393d9     CctCharacterController.obj
 0003:000003da       ?_ignore@?2??getDimensions@PxBounds3@physx@@QBE?AVPxVec3@3@XZ@4_NA 100393da     CctCharacterController.obj
 0003:000003db       ?_ignore@?2??getExtents@PxBounds3@physx@@QBE?AVPxVec3@3@XZ@4_NA 100393db     CctCharacterController.obj
 0003:00000453       ?_ignore@?2??encodeUserObject@Cct@physx@@YAIIW4UserObjectType@23@@Z@4_NA 10039453     CctCharacterController.obj
 0003:00000454       ?_ignore@?3??encodeUserObject@Cct@physx@@YAIIW4UserObjectType@23@@Z@4_NA 10039454     CctCharacterController.obj
 0003:0000047c       ?_ignore@?4??postFilter@ControllerFilter@@UAE?AW4Enum@PxQueryHitType@physx@@ABUPxFilterData@5@ABUPxQueryHit@5@@Z@4_NA 1003947c     CctCharacterController.obj
 0003:00000489       ?_ignore@?2???A?$Array@UInternalCapsuleObstacle@ObstacleContext@Cct@physx@@VNamedAllocator@shdfnd@4@@shdfnd@physx@@QBEABUInternalCapsuleObstacle@ObstacleContext@Cct@3@I@Z@4_NA 10039489     CctCharacterController.obj
 0003:0000048a       ?_ignore@?2???A?$Array@UInternalBoxObstacle@ObstacleContext@Cct@physx@@VNamedAllocator@shdfnd@4@@shdfnd@physx@@QBEABUInternalBoxObstacle@ObstacleContext@Cct@3@I@Z@4_NA 1003948a     CctCharacterController.obj
 0003:0000048b       ?_ignore@?2??forceSize_Unsafe@?$Array@IVNamedAllocator@shdfnd@physx@@@shdfnd@physx@@QAEXI@Z@4_NA 1003948b     CctCharacterController.obj
 0003:0000048c       ?_ignore@?2???A?$Array@IVNamedAllocator@shdfnd@physx@@@shdfnd@physx@@QBEABII@Z@4_NA 1003948c     CctCharacterController.obj
 0003:0000048d       ?_ignore@?2??forceSize_Unsafe@?$Array@VPxTriangle@physx@@VNamedAllocator@shdfnd@2@@shdfnd@physx@@QAEXI@Z@4_NA 1003948d     CctCharacterController.obj
 0003:0000048e       ?_ignore@?2???A?$Array@VPxTriangle@physx@@VNamedAllocator@shdfnd@2@@shdfnd@physx@@QAEAAVPxTriangle@3@I@Z@4_NA 1003948e     CctCharacterController.obj
 0003:0000048f       ?_ignore@?2???A?$Array@VPxTriangle@physx@@VNamedAllocator@shdfnd@2@@shdfnd@physx@@QBEABVPxTriangle@3@I@Z@4_NA 1003948f     CctCharacterController.obj
 0003:00000490       ?_ignore@?2??getAnyHit@?$PxHitBuffer@UPxRaycastHit@physx@@@physx@@QBEABUPxRaycastHit@3@I@Z@4_NA 10039490     CctCharacterController.obj
 0003:00000491       ?_ignore@?2??growAndPushBack@?$Array@PBXVNamedAllocator@shdfnd@physx@@@shdfnd@physx@@IAEAAPBXABQBX@Z@4_NA 10039491     CctCharacterController.obj
 0003:00000492       ?_ignore@?2??growAndPushBack@?$Array@VPxExtendedBox@physx@@VNamedAllocator@shdfnd@2@@shdfnd@physx@@IAEAAVPxExtendedBox@4@ABV54@@Z@4_NA 10039492     CctCharacterController.obj
 0003:00000493       ?_ignore@?2??growAndPushBack@?$Array@UPxExtendedCapsule@physx@@VNamedAllocator@shdfnd@2@@shdfnd@physx@@IAEAAUPxExtendedCapsule@4@ABU54@@Z@4_NA 10039493     CctCharacterController.obj
 0003:00000494       ?_ignore@?2??grow@?$Array@IVNamedAllocator@shdfnd@physx@@@shdfnd@physx@@IAEXI@Z@4_NA 10039494     CctCharacterController.obj
 0003:00000495       ?_ignore@?2??recreate@?$Array@IVNamedAllocator@shdfnd@physx@@@shdfnd@physx@@IAEXI@Z@4_NA 10039495     CctCharacterController.obj
 0003:00000496       ?_ignore@?2???APxVec3@physx@@QBEABMH@Z@4_NA 10039496     CctCharacterControllerCallbacks.obj
 0003:00000497       ?_ignore@?2??rotate@PxTransform@physx@@QBE?AVPxVec3@3@ABV43@@Z@4_NA 10039497     CctCharacterControllerCallbacks.obj
 0003:000004a8       ?_ignore@?2??getAnyHit@?$PxHitBuffer@UPxOverlapHit@physx@@@physx@@QBEABUPxOverlapHit@3@I@Z@4_NA 100394a8     CctCharacterControllerCallbacks.obj
 0003:000004a9       ?_ignore@?2??growAndPushBack@?$Array@VPxTriangle@physx@@VNamedAllocator@shdfnd@2@@shdfnd@physx@@IAEAAVPxTriangle@4@ABV54@@Z@4_NA 100394a9     CctCharacterControllerCallbacks.obj
 0003:000004aa       ?_ignore@?2??growAndPushBack@?$Array@IVNamedAllocator@shdfnd@physx@@@shdfnd@physx@@IAEAAIABI@Z@4_NA 100394aa     CctCharacterControllerCallbacks.obj
 0003:000004ab       ?_ignore@?2??grow@?$Array@VPxTriangle@physx@@VNamedAllocator@shdfnd@2@@shdfnd@physx@@IAEXI@Z@4_NA 100394ab     CctCharacterControllerCallbacks.obj
 0003:000004ac       ?_ignore@?2??recreate@?$Array@VPxTriangle@physx@@VNamedAllocator@shdfnd@2@@shdfnd@physx@@IAEXI@Z@4_NA 100394ac     CctCharacterControllerCallbacks.obj
 0003:000004ad       ?_ignore@?2???APxVec3@physx@@QBEABMI@Z@4_NA 100394ad     CctCharacterControllerManager.obj
 0003:00000531       ?_ignore@?2???A?$Array@PAVObstacleContext@Cct@physx@@VNamedAllocator@shdfnd@3@@shdfnd@physx@@QAEAAPAVObstacleContext@Cct@3@I@Z@4_NA 10039531     CctCharacterControllerManager.obj
 0003:00000532       ?_ignore@?2??replaceWithLast@?$Array@PAVController@Cct@physx@@VNamedAllocator@shdfnd@3@@shdfnd@physx@@QAEXI@Z@4_NA 10039532     CctCharacterControllerManager.obj
 0003:00000533       ?_ignore@?2???A?$Array@PAVController@Cct@physx@@VNamedAllocator@shdfnd@3@@shdfnd@physx@@QAEAAPAVController@Cct@3@I@Z@4_NA 10039533     CctCharacterControllerManager.obj
 0003:00000534       ?_ignore@?2???A?$Array@PAVController@Cct@physx@@VNamedAllocator@shdfnd@3@@shdfnd@physx@@QBEABQAVController@Cct@3@I@Z@4_NA 10039534     CctCharacterControllerManager.obj
 0003:00000535       ?_ignore@?2???A?$Array@UPxDebugText@physx@@VNamedAllocator@shdfnd@2@@shdfnd@physx@@QAEAAUPxDebugText@3@I@Z@4_NA 10039535     CctCharacterControllerManager.obj
 0003:00000536       ?_ignore@?2???A?$Array@UPxDebugTriangle@physx@@VNamedAllocator@shdfnd@2@@shdfnd@physx@@QAEAAUPxDebugTriangle@3@I@Z@4_NA 10039536     CctCharacterControllerManager.obj
 0003:00000537       ?_ignore@?2???A?$Array@UPxDebugLine@physx@@VNamedAllocator@shdfnd@2@@shdfnd@physx@@QAEAAUPxDebugLine@3@I@Z@4_NA 10039537     CctCharacterControllerManager.obj
 0003:00000538       ?_ignore@?2???A?$Array@UPxDebugPoint@physx@@VNamedAllocator@shdfnd@2@@shdfnd@physx@@QAEAAUPxDebugPoint@3@I@Z@4_NA 10039538     CctCharacterControllerManager.obj
 0003:00000539       ?_ignore@?2??replaceWithLast@?$Array@PAVObstacleContext@Cct@physx@@VNamedAllocator@shdfnd@3@@shdfnd@physx@@QAEXI@Z@4_NA 10039539     CctCharacterControllerManager.obj
 0003:0000053a       ?_ignore@?2??grow@?$HashBase@PAVPxShape@physx@@PAV12@U?$Hash@PAVPxShape@physx@@@shdfnd@2@UGetKey@?$HashSetBase@PAVPxShape@physx@@U?$Hash@PAVPxShape@physx@@@shdfnd@2@VAllocator@42@$0A@@internal@42@VAllocator@42@$0A@@internal@shdfnd@physx@@AAEXXZ@4_NA 1003953a     CctCharacterControllerManager.obj
 0003:0000053b       ?_ignore@?3??replaceWithLast@?$HashBase@PAVPxShape@physx@@PAV12@U?$Hash@PAVPxShape@physx@@@shdfnd@2@UGetKey@?$HashSetBase@PAVPxShape@physx@@U?$Hash@PAVPxShape@physx@@@shdfnd@2@VAllocator@42@$0A@@internal@42@VAllocator@42@$0A@@internal@shdfnd@physx@@AAEXI@Z@4_NA 1003953b     CctCharacterControllerManager.obj
 0003:0000053c       ?_ignore@?2??freeListGetNext@?$HashBase@PAVPxShape@physx@@PAV12@U?$Hash@PAVPxShape@physx@@@shdfnd@2@UGetKey@?$HashSetBase@PAVPxShape@physx@@U?$Hash@PAVPxShape@physx@@@shdfnd@2@VAllocator@42@$0A@@internal@42@VAllocator@42@$0A@@internal@shdfnd@physx@@AAEIXZ@4_NA 1003953c     CctCharacterControllerManager.obj
 0003:0000053d       ?_ignore@?6??freeListGetNext@?$HashBase@PAVPxShape@physx@@PAV12@U?$Hash@PAVPxShape@physx@@@shdfnd@2@UGetKey@?$HashSetBase@PAVPxShape@physx@@U?$Hash@PAVPxShape@physx@@@shdfnd@2@VAllocator@42@$0A@@internal@42@VAllocator@42@$0A@@internal@shdfnd@physx@@AAEIXZ@4_NA 1003953d     CctCharacterControllerManager.obj
 0003:0000053e       ?_ignore@?5??freeListAdd@?$HashBase@PAVPxShape@physx@@PAV12@U?$Hash@PAVPxShape@physx@@@shdfnd@2@UGetKey@?$HashSetBase@PAVPxShape@physx@@U?$Hash@PAVPxShape@physx@@@shdfnd@2@VAllocator@42@$0A@@internal@42@VAllocator@42@$0A@@internal@shdfnd@physx@@AAEXI@Z@4_NA 1003953e     CctCharacterControllerManager.obj
 0003:0000053f       ?_ignore@?4??reserveInternal@?$HashBase@PAVPxShape@physx@@PAV12@U?$Hash@PAVPxShape@physx@@@shdfnd@2@UGetKey@?$HashSetBase@PAVPxShape@physx@@U?$Hash@PAVPxShape@physx@@@shdfnd@2@VAllocator@42@$0A@@internal@42@VAllocator@42@$0A@@internal@shdfnd@physx@@AAEXI@Z@4_NA 1003953f     CctCharacterControllerManager.obj
 0003:00000540       ?_ignore@?6??reserveInternal@?$HashBase@PAVPxShape@physx@@PAV12@U?$Hash@PAVPxShape@physx@@@shdfnd@2@UGetKey@?$HashSetBase@PAVPxShape@physx@@U?$Hash@PAVPxShape@physx@@@shdfnd@2@VAllocator@42@$0A@@internal@42@VAllocator@42@$0A@@internal@shdfnd@physx@@AAEXI@Z@4_NA 10039540     CctCharacterControllerManager.obj
 0003:00000541       ?_ignore@?L@??reserveInternal@?$HashBase@PAVPxShape@physx@@PAV12@U?$Hash@PAVPxShape@physx@@@shdfnd@2@UGetKey@?$HashSetBase@PAVPxShape@physx@@U?$Hash@PAVPxShape@physx@@@shdfnd@2@VAllocator@42@$0A@@internal@42@VAllocator@42@$0A@@internal@shdfnd@physx@@AAEXI@Z@4_NA 10039541     CctCharacterControllerManager.obj
 0003:00000542       ?_ignore@?BE@??reserveInternal@?$HashBase@PAVPxShape@physx@@PAV12@U?$Hash@PAVPxShape@physx@@@shdfnd@2@UGetKey@?$HashSetBase@PAVPxShape@physx@@U?$Hash@PAVPxShape@physx@@@shdfnd@2@VAllocator@42@$0A@@internal@42@VAllocator@42@$0A@@internal@shdfnd@physx@@AAEXI@Z@4_NA 10039542     CctCharacterControllerManager.obj
 0003:00000543       ?_ignore@?6??freeListAdd@?$HashBase@PAVPxShape@physx@@PAV12@U?$Hash@PAVPxShape@physx@@@shdfnd@2@UGetKey@?$HashSetBase@PAVPxShape@physx@@U?$Hash@PAVPxShape@physx@@@shdfnd@2@VAllocator@42@$0A@@internal@42@VAllocator@42@$0A@@internal@shdfnd@physx@@AAEXII@Z@4_NA 10039543     CctCharacterControllerManager.obj
 0003:00000544       ?_ignore@?2??growAndPushBack@?$Array@UPxDebugLine@physx@@VNamedAllocator@shdfnd@2@@shdfnd@physx@@IAEAAUPxDebugLine@4@ABU54@@Z@4_NA 10039544     CctCharacterControllerManager.obj
 0003:00000545       ?_ignore@?2??growAndPushBack@?$Array@PAVController@Cct@physx@@VNamedAllocator@shdfnd@3@@shdfnd@physx@@IAEAAPAVController@Cct@4@ABQAV564@@Z@4_NA 10039545     CctCharacterControllerManager.obj
 0003:00000546       ?_ignore@?2??growAndPushBack@?$Array@PAVObstacleContext@Cct@physx@@VNamedAllocator@shdfnd@3@@shdfnd@physx@@IAEAAPAVObstacleContext@Cct@4@ABQAV564@@Z@4_NA 10039546     CctCharacterControllerManager.obj
 0003:00000547       ?_ignore@?2??grow@?$Array@UPxDebugText@physx@@VNamedAllocator@shdfnd@2@@shdfnd@physx@@IAEXI@Z@4_NA 10039547     CctCharacterControllerManager.obj
 0003:00000548       ?_ignore@?2??grow@?$Array@UPxDebugTriangle@physx@@VNamedAllocator@shdfnd@2@@shdfnd@physx@@IAEXI@Z@4_NA 10039548     CctCharacterControllerManager.obj
 0003:00000549       ?_ignore@?2??grow@?$Array@UPxDebugLine@physx@@VNamedAllocator@shdfnd@2@@shdfnd@physx@@IAEXI@Z@4_NA 10039549     CctCharacterControllerManager.obj
 0003:0000054a       ?_ignore@?2??grow@?$Array@UPxDebugPoint@physx@@VNamedAllocator@shdfnd@2@@shdfnd@physx@@IAEXI@Z@4_NA 1003954a     CctCharacterControllerManager.obj
 0003:0000054b       ?_ignore@?2??growAndPushBack@?$Array@UPxDebugPoint@physx@@VNamedAllocator@shdfnd@2@@shdfnd@physx@@IAEAAUPxDebugPoint@4@ABU54@@Z@4_NA 1003954b     CctCharacterControllerManager.obj
 0003:0000054c       ?_ignore@?2??recreate@?$Array@UPxDebugPoint@physx@@VNamedAllocator@shdfnd@2@@shdfnd@physx@@IAEXI@Z@4_NA 1003954c     CctCharacterControllerManager.obj
 0003:0000054d       ?_ignore@?2??recreate@?$Array@UPxDebugLine@physx@@VNamedAllocator@shdfnd@2@@shdfnd@physx@@IAEXI@Z@4_NA 1003954d     CctCharacterControllerManager.obj
 0003:0000054e       ?_ignore@?2??growAndPushBack@?$Array@UPxDebugTriangle@physx@@VNamedAllocator@shdfnd@2@@shdfnd@physx@@IAEAAUPxDebugTriangle@4@ABU54@@Z@4_NA 1003954e     CctCharacterControllerManager.obj
 0003:0000054f       ?_ignore@?2??recreate@?$Array@UPxDebugTriangle@physx@@VNamedAllocator@shdfnd@2@@shdfnd@physx@@IAEXI@Z@4_NA 1003954f     CctCharacterControllerManager.obj
 0003:00000550       ?_ignore@?2??growAndPushBack@?$Array@UPxDebugText@physx@@VNamedAllocator@shdfnd@2@@shdfnd@physx@@IAEAAUPxDebugText@4@ABU54@@Z@4_NA 10039550     CctCharacterControllerManager.obj
 0003:00000551       ?_ignore@?2??recreate@?$Array@UPxDebugText@physx@@VNamedAllocator@shdfnd@2@@shdfnd@physx@@IAEXI@Z@4_NA 10039551     CctCharacterControllerManager.obj
 0003:00000552       ?_ignore@?2??recreate@?$Array@PBXVNamedAllocator@shdfnd@physx@@@shdfnd@physx@@IAEXI@Z@4_NA 10039552     CctCharacterControllerManager.obj
 0003:00000553       ?_ignore@?2??recreate@?$Array@VPxExtendedBox@physx@@VNamedAllocator@shdfnd@2@@shdfnd@physx@@IAEXI@Z@4_NA 10039553     CctCharacterControllerManager.obj
 0003:00000554       ?_ignore@?2??recreate@?$Array@UPxExtendedCapsule@physx@@VNamedAllocator@shdfnd@2@@shdfnd@physx@@IAEXI@Z@4_NA 10039554     CctCharacterControllerManager.obj
 0003:00000555       ?_ignore@?2??grow@?$Array@UPxExtendedCapsule@physx@@VNamedAllocator@shdfnd@2@@shdfnd@physx@@IAEXI@Z@4_NA 10039555     CctCharacterControllerManager.obj
 0003:00000556       ?_ignore@?2??grow@?$Array@VPxExtendedBox@physx@@VNamedAllocator@shdfnd@2@@shdfnd@physx@@IAEXI@Z@4_NA 10039556     CctCharacterControllerManager.obj
 0003:00000557       ?_ignore@?2??grow@?$Array@PBXVNamedAllocator@shdfnd@physx@@@shdfnd@physx@@IAEXI@Z@4_NA 10039557     CctCharacterControllerManager.obj
 0003:0000055b       ?_ignore@?2??to16@shdfnd@physx@@YAGI@Z@4_NA 1003955b     CctObstacleContext.obj
 0003:00000567       ?_ignore@?2??replaceWithLast@?$Array@UInternalCapsuleObstacle@ObstacleContext@Cct@physx@@VNamedAllocator@shdfnd@4@@shdfnd@physx@@QAEXI@Z@4_NA 10039567     CctObstacleContext.obj
 0003:00000568       ?_ignore@?2???A?$Array@UInternalCapsuleObstacle@ObstacleContext@Cct@physx@@VNamedAllocator@shdfnd@4@@shdfnd@physx@@QAEAAUInternalCapsuleObstacle@ObstacleContext@Cct@3@I@Z@4_NA 10039568     CctObstacleContext.obj
 0003:00000569       ?_ignore@?2??replaceWithLast@?$Array@UInternalBoxObstacle@ObstacleContext@Cct@physx@@VNamedAllocator@shdfnd@4@@shdfnd@physx@@QAEXI@Z@4_NA 10039569     CctObstacleContext.obj
 0003:0000056a       ?_ignore@?2???A?$Array@UInternalBoxObstacle@ObstacleContext@Cct@physx@@VNamedAllocator@shdfnd@4@@shdfnd@physx@@QAEAAUInternalBoxObstacle@ObstacleContext@Cct@3@I@Z@4_NA 1003956a     CctObstacleContext.obj
 0003:0000056b       ?_ignore@?2??growAndPushBack@?$Array@UInternalBoxObstacle@ObstacleContext@Cct@physx@@VNamedAllocator@shdfnd@4@@shdfnd@physx@@IAEAAUInternalBoxObstacle@ObstacleContext@Cct@4@ABU5674@@Z@4_NA 1003956b     CctObstacleContext.obj
 0003:0000056c       ?_ignore@?2??growAndPushBack@?$Array@UInternalCapsuleObstacle@ObstacleContext@Cct@physx@@VNamedAllocator@shdfnd@4@@shdfnd@physx@@IAEAAUInternalCapsuleObstacle@ObstacleContext@Cct@4@ABU5674@@Z@4_NA 1003956c     CctObstacleContext.obj
 0003:00000573       ?_ignore@?2???APxVec3@physx@@QAEAAMH@Z@4_NA 10039573     PhysX3ExtensionsDEBUG:ExtRigidBodyExt.obj
 0003:00000574       ?_ignore@?2???APxVec3@physx@@QAEAAMI@Z@4_NA 10039574     PhysX3ExtensionsDEBUG:ExtRigidBodyExt.obj
 0003:00000575       ?_ignore@?2??getInverse@PxTransform@physx@@QBE?AV23@XZ@4_NA 10039575     PhysX3ExtensionsDEBUG:ExtRigidBodyExt.obj
 0003:00000576       ?_ignore@?2??transformFast@PxBounds3@physx@@SA?AV23@ABVPxTransform@3@ABV23@@Z@4_NA 10039576     PhysX3ExtensionsDEBUG:ExtRigidBodyExt.obj
 0003:0000057c       ?_ignore@?2??setDiagonal@InertiaTensorComputer@Ext@physx@@QAEXMABVPxVec3@4@@Z@4_NA 1003957c     PhysX3ExtensionsDEBUG:ExtRigidBodyExt.obj
 0003:0000057d       ?_ignore@?3??setDiagonal@InertiaTensorComputer@Ext@physx@@QAEXMABVPxVec3@4@@Z@4_NA 1003957d     PhysX3ExtensionsDEBUG:ExtRigidBodyExt.obj
 0003:0000057e       ?_ignore@?2??rotate@InertiaTensorComputer@Ext@physx@@QAEXABVPxMat33@4@@Z@4_NA 1003957e     PhysX3ExtensionsDEBUG:ExtRigidBodyExt.obj
 0003:0000057f       ?_ignore@?3??rotate@InertiaTensorComputer@Ext@physx@@QAEXABVPxMat33@4@@Z@4_NA 1003957f     PhysX3ExtensionsDEBUG:ExtRigidBodyExt.obj
 0003:00000582       ?_ignore@?2??scaleDensity@InertiaTensorComputer@Ext@physx@@QAEXM@Z@4_NA 10039582     PhysX3ExtensionsDEBUG:ExtRigidBodyExt.obj
 0003:00000583       ?_ignore@?3??scaleDensity@InertiaTensorComputer@Ext@physx@@QAEXM@Z@4_NA 10039583     PhysX3ExtensionsDEBUG:ExtRigidBodyExt.obj
 0003:00000584       ?_ignore@?2??add@InertiaTensorComputer@Ext@physx@@QAEXABV234@@Z@4_NA 10039584     PhysX3ExtensionsDEBUG:ExtRigidBodyExt.obj
 0003:00000585       ?_ignore@?3??add@InertiaTensorComputer@Ext@physx@@QAEXABV234@@Z@4_NA 10039585     PhysX3ExtensionsDEBUG:ExtRigidBodyExt.obj
 0003:00000586       ?_ignore@?4??add@InertiaTensorComputer@Ext@physx@@QAEXABV234@@Z@4_NA 10039586     PhysX3ExtensionsDEBUG:ExtRigidBodyExt.obj
 0003:00000596       ?_ignore@?2???A?$Array@PAVPxShape@physx@@V?$InlineAllocator@$0EA@VNamedAllocator@shdfnd@physx@@@shdfnd@2@@shdfnd@physx@@QAEAAPAVPxShape@3@I@Z@4_NA 10039596     PhysX3ExtensionsDEBUG:ExtRigidBodyExt.obj
 0003:00000597       ?_ignore@?2??grow@?$Array@PAVPxShape@physx@@V?$InlineAllocator@$0EA@VNamedAllocator@shdfnd@physx@@@shdfnd@2@@shdfnd@physx@@IAEXI@Z@4_NA 10039597     PhysX3ExtensionsDEBUG:ExtRigidBodyExt.obj
 0003:00000598       ?_ignore@?2??recreate@?$Array@PAVPxShape@physx@@V?$InlineAllocator@$0EA@VNamedAllocator@shdfnd@physx@@@shdfnd@2@@shdfnd@physx@@IAEXI@Z@4_NA 10039598     PhysX3ExtensionsDEBUG:ExtRigidBodyExt.obj
 0003:000005a0       ?__type_info_root_node@@3U__type_info_node@@A 100395a0     MSVCRTD:tncleanup.obj
 0003:000005bc       ___scrt_current_native_startup_state 100395bc     MSVCRTD:utility.obj
 0003:000005c0       ___scrt_native_startup_lock 100395c0     MSVCRTD:utility.obj
 0003:000005e8       ?_OptionsStorage@?1??__local_stdio_printf_options@@9@4_KA 100395e8     MSVCRTD:default_local_stdio_options.obj
 0003:000005f8       ?_OptionsStorage@?1??__local_stdio_scanf_options@@9@4_KA 100395f8     MSVCRTD:default_local_stdio_options.obj
 0003:00000604       ___scrt_debugger_hook_flag 10039604     MSVCRTD:utility_desktop.obj
 0003:00000608       ___isa_available           10039608     MSVCRTD:_cpu_disp_.obj
 0003:0000060c       ___favor                   1003960c     MSVCRTD:_cpu_disp_.obj
 0003:000009dc       ___dyn_tls_init_callback   100399dc     <common>
 0004:00000000       __imp__InitializeSListHead@4 1003a000     kernel32:KERNEL32.dll
 0004:00000004       __imp__GetCurrentProcessId@0 1003a004     kernel32:KERNEL32.dll
 0004:00000008       __imp__GetCurrentThreadId@0 1003a008     kernel32:KERNEL32.dll
 0004:0000000c       __imp__GetSystemTimeAsFileTime@4 1003a00c     kernel32:KERNEL32.dll
 0004:00000010       __imp__DisableThreadLibraryCalls@4 1003a010     kernel32:KERNEL32.dll
 0004:00000014       __imp__IsDebuggerPresent@0 1003a014     kernel32:KERNEL32.dll
 0004:00000018       __imp__UnhandledExceptionFilter@4 1003a018     kernel32:KERNEL32.dll
 0004:0000001c       __imp__SetUnhandledExceptionFilter@4 1003a01c     kernel32:KERNEL32.dll
 0004:00000020       __imp__GetStartupInfoW@4   1003a020     kernel32:KERNEL32.dll
 0004:00000024       __imp__IsProcessorFeaturePresent@4 1003a024     kernel32:KERNEL32.dll
 0004:00000028       __imp__GetModuleHandleW@4  1003a028     kernel32:KERNEL32.dll
 0004:0000002c       __imp__RaiseException@16   1003a02c     kernel32:KERNEL32.dll
 0004:00000030       __imp__MultiByteToWideChar@24 1003a030     kernel32:KERNEL32.dll
 0004:00000034       __imp__WideCharToMultiByte@32 1003a034     kernel32:KERNEL32.dll
 0004:00000038       __imp__GetLastError@0      1003a038     kernel32:KERNEL32.dll
 0004:0000003c       __imp__HeapAlloc@12        1003a03c     kernel32:KERNEL32.dll
 0004:00000040       __imp__HeapFree@12         1003a040     kernel32:KERNEL32.dll
 0004:00000044       __imp__GetProcessHeap@0    1003a044     kernel32:KERNEL32.dll
 0004:00000048       __imp__VirtualQuery@12     1003a048     kernel32:KERNEL32.dll
 0004:0000004c       __imp__FreeLibrary@4       1003a04c     kernel32:KERNEL32.dll
 0004:00000050       __imp__GetProcAddress@8    1003a050     kernel32:KERNEL32.dll
 0004:00000054       __imp__GetCurrentProcess@0 1003a054     kernel32:KERNEL32.dll
 0004:00000058       __imp__TerminateProcess@8  1003a058     kernel32:KERNEL32.dll
 0004:0000005c       __imp__QueryPerformanceCounter@4 1003a05c     kernel32:KERNEL32.dll
 0004:00000060       \177KERNEL32_NULL_THUNK_DATA 1003a060     kernel32:KERNEL32.dll
 0004:0000009c       __imp_?getTriangle@PxMeshQuery@physx@@SAXABVPxHeightFieldGeometry@2@ABVPxTransform@2@IAAVPxTriangle@2@PAI3@Z 1003a09c     PhysX3CommonDEBUG_x86:PhysX3CommonDEBUG_x86.dll
 0004:000000a0       __imp_??6RenderOutput@Cm@physx@@QAEAAV012@W4Primitive@012@@Z 1003a0a0     PhysX3CommonDEBUG_x86:PhysX3CommonDEBUG_x86.dll
 0004:000000a4       __imp_??6RenderOutput@Cm@physx@@QAEAAV012@VPxVec3@2@@Z 1003a0a4     PhysX3CommonDEBUG_x86:PhysX3CommonDEBUG_x86.dll
 0004:000000a8       __imp_?intersectTriangleBox@Gu@physx@@YAHABVPxVec3@2@0000@Z 1003a0a8     PhysX3CommonDEBUG_x86:PhysX3CommonDEBUG_x86.dll
 0004:000000ac       __imp_?getAllocator@shdfnd@physx@@YAAAVPxAllocatorCallback@2@XZ 1003a0ac     PhysX3CommonDEBUG_x86:PhysX3CommonDEBUG_x86.dll
 0004:000000b0       __imp_?allocate@Allocator@shdfnd@physx@@QAEPAXIPBDH@Z 1003a0b0     PhysX3CommonDEBUG_x86:PhysX3CommonDEBUG_x86.dll
 0004:000000b4       __imp_?getInstance@Foundation@shdfnd@physx@@SAAAV123@XZ 1003a0b4     PhysX3CommonDEBUG_x86:PhysX3CommonDEBUG_x86.dll
 0004:000000b8       __imp_?incRefCount@Foundation@shdfnd@physx@@SAXXZ 1003a0b8     PhysX3CommonDEBUG_x86:PhysX3CommonDEBUG_x86.dll
 0004:000000bc       __imp_?decRefCount@Foundation@shdfnd@physx@@SAXXZ 1003a0bc     PhysX3CommonDEBUG_x86:PhysX3CommonDEBUG_x86.dll
 0004:000000c0       __imp_?getTriangle@PxMeshQuery@physx@@SAXABVPxTriangleMeshGeometry@2@ABVPxTransform@2@IAAVPxTriangle@2@PAI3@Z 1003a0c0     PhysX3CommonDEBUG_x86:PhysX3CommonDEBUG_x86.dll
 0004:000000c4       __imp_?CompleteBoxPruning@Gu@physx@@YA_NPBVPxBounds3@2@IAAV?$Array@IVNamedAllocator@shdfnd@physx@@@shdfnd@2@ABVAxes@12@@Z 1003a0c4     PhysX3CommonDEBUG_x86:PhysX3CommonDEBUG_x86.dll
 0004:000000c8       __imp_?distanceSegmentSegmentSquaredOLD@Gu@physx@@YAMABVPxVec3@2@000PAM1@Z 1003a0c8     PhysX3CommonDEBUG_x86:PhysX3CommonDEBUG_x86.dll
 0004:000000cc       __imp_??0MutexImpl@shdfnd@physx@@QAE@XZ 1003a0cc     PhysX3CommonDEBUG_x86:PhysX3CommonDEBUG_x86.dll
 0004:000000d0       __imp_??1MutexImpl@shdfnd@physx@@QAE@XZ 1003a0d0     PhysX3CommonDEBUG_x86:PhysX3CommonDEBUG_x86.dll
 0004:000000d4       __imp_?getSize@MutexImpl@shdfnd@physx@@SAABIXZ 1003a0d4     PhysX3CommonDEBUG_x86:PhysX3CommonDEBUG_x86.dll
 0004:000000d8       __imp_?GetRaycastFuncTable@Gu@physx@@YAAAY06P6AIABVPxGeometry@2@ABVPxTransform@2@ABVPxVec3@2@2MV?$PxFlags@W4Enum@PxHitFlag@physx@@G@2@IPIAUPxRaycastHit@2@_NP6A_NAAU72@PAX@Z7@ZXZ 1003a0d8     PhysX3CommonDEBUG_x86:PhysX3CommonDEBUG_x86.dll
 0004:000000dc       __imp_?findOverlapHeightField@PxMeshQuery@physx@@SAIABVPxGeometry@2@ABVPxTransform@2@ABVPxHeightFieldGeometry@2@1PAIIIAA_N@Z 1003a0dc     PhysX3CommonDEBUG_x86:PhysX3CommonDEBUG_x86.dll
 0004:000000e0       __imp_?findOverlapTriangleMesh@PxMeshQuery@physx@@SAIABVPxGeometry@2@ABVPxTransform@2@ABVPxTriangleMeshGeometry@2@1PAIIIAA_N@Z 1003a0e0     PhysX3CommonDEBUG_x86:PhysX3CommonDEBUG_x86.dll
 0004:000000e4       __imp_?sweep@PxMeshQuery@physx@@SA_NABVPxVec3@2@MABVPxGeometry@2@ABVPxTransform@2@IPBVPxTriangle@2@AAUPxSweepHit@2@V?$PxFlags@W4Enum@PxHitFlag@physx@@G@2@PBIM_N@Z 1003a0e4     PhysX3CommonDEBUG_x86:PhysX3CommonDEBUG_x86.dll
 0004:000000e8       __imp_?distanceSegmentBoxSquared@Gu@physx@@YAMABVPxVec3@2@000ABVPxMat33@2@PAMPAV32@@Z 1003a0e8     PhysX3CommonDEBUG_x86:PhysX3CommonDEBUG_x86.dll
 0004:000000ec       __imp_?intersectOBBOBB@Gu@physx@@YA_NABVPxVec3@2@0ABVPxMat33@2@001_N@Z 1003a0ec     PhysX3CommonDEBUG_x86:PhysX3CommonDEBUG_x86.dll
 0004:000000f0       __imp_??1Box@Gu@physx@@QAE@XZ 1003a0f0     PhysX3CommonDEBUG_x86:PhysX3CommonDEBUG_x86.dll
 0004:000000f4       __imp_??0Box@Gu@physx@@QAE@ABVPxVec3@2@0ABVPxMat33@2@@Z 1003a0f4     PhysX3CommonDEBUG_x86:PhysX3CommonDEBUG_x86.dll
 0004:000000f8       __imp_??6Cm@physx@@YAAAVRenderOutput@01@AAV201@ABUDebugBox@01@@Z 1003a0f8     PhysX3CommonDEBUG_x86:PhysX3CommonDEBUG_x86.dll
 0004:000000fc       __imp_?outputCapsule@RenderOutput@Cm@physx@@QAEAAV123@MMABVMatrix34@23@@Z 1003a0fc     PhysX3CommonDEBUG_x86:PhysX3CommonDEBUG_x86.dll
 0004:00000100       __imp_??6RenderOutput@Cm@physx@@QAEAAV012@ABVPxTransform@2@@Z 1003a100     PhysX3CommonDEBUG_x86:PhysX3CommonDEBUG_x86.dll
 0004:00000104       __imp_?PxDiagonalize@physx@@YA?AVPxVec3@1@ABVPxMat33@1@AAVPxQuat@1@@Z 1003a104     PhysX3CommonDEBUG_x86:PhysX3CommonDEBUG_x86.dll
 0004:00000108       __imp_??6RenderOutput@Cm@physx@@QAEAAV012@I@Z 1003a108     PhysX3CommonDEBUG_x86:PhysX3CommonDEBUG_x86.dll
 0004:0000010c       __imp_??0RenderOutput@Cm@physx@@QAE@AAVRenderBuffer@12@@Z 1003a10c     PhysX3CommonDEBUG_x86:PhysX3CommonDEBUG_x86.dll
 0004:00000110       __imp_?deallocate@NamedAllocator@shdfnd@physx@@QAEXPAX@Z 1003a110     PhysX3CommonDEBUG_x86:PhysX3CommonDEBUG_x86.dll
 0004:00000114       __imp_?allocate@NamedAllocator@shdfnd@physx@@QAEPAXIPBDH@Z 1003a114     PhysX3CommonDEBUG_x86:PhysX3CommonDEBUG_x86.dll
 0004:00000118       __imp_??1NamedAllocator@shdfnd@physx@@QAE@XZ 1003a118     PhysX3CommonDEBUG_x86:PhysX3CommonDEBUG_x86.dll
 0004:0000011c       __imp_??0NamedAllocator@shdfnd@physx@@QAE@ABV012@@Z 1003a11c     PhysX3CommonDEBUG_x86:PhysX3CommonDEBUG_x86.dll
 0004:00000120       __imp_??0NamedAllocator@shdfnd@physx@@QAE@PBD@Z 1003a120     PhysX3CommonDEBUG_x86:PhysX3CommonDEBUG_x86.dll
 0004:00000124       __imp_?computePenetration@PxGeometryQuery@physx@@SA_NAAVPxVec3@2@AAMABVPxGeometry@2@ABVPxTransform@2@23@Z 1003a124     PhysX3CommonDEBUG_x86:PhysX3CommonDEBUG_x86.dll
 0004:00000128       __imp_?sweep@PxGeometryQuery@physx@@SA_NABVPxVec3@2@MABVPxGeometry@2@ABVPxTransform@2@12AAUPxSweepHit@2@V?$PxFlags@W4Enum@PxHitFlag@physx@@G@2@M@Z 1003a128     PhysX3CommonDEBUG_x86:PhysX3CommonDEBUG_x86.dll
 0004:0000012c       __imp_?PxTransformFromSegment@physx@@YA?AVPxTransform@1@ABVPxVec3@1@0PAM@Z 1003a12c     PhysX3CommonDEBUG_x86:PhysX3CommonDEBUG_x86.dll
 0004:00000130       __imp_?unlock@MutexImpl@shdfnd@physx@@QAEXXZ 1003a130     PhysX3CommonDEBUG_x86:PhysX3CommonDEBUG_x86.dll
 0004:00000134       __imp_?lock@MutexImpl@shdfnd@physx@@QAEXXZ 1003a134     PhysX3CommonDEBUG_x86:PhysX3CommonDEBUG_x86.dll
 0004:00000138       __imp_?deallocate@Allocator@shdfnd@physx@@QAEXPAX@Z 1003a138     PhysX3CommonDEBUG_x86:PhysX3CommonDEBUG_x86.dll
 0004:0000013c       __imp_??0Allocator@shdfnd@physx@@QAE@PBD@Z 1003a13c     PhysX3CommonDEBUG_x86:PhysX3CommonDEBUG_x86.dll
 0004:00000140       __imp__PxGetFoundation     1003a140     PhysX3CommonDEBUG_x86:PhysX3CommonDEBUG_x86.dll
 0004:00000144       __imp_?error@Foundation@shdfnd@physx@@QAAXW4Enum@PxErrorCode@3@PBDH1ZZ 1003a144     PhysX3CommonDEBUG_x86:PhysX3CommonDEBUG_x86.dll
 0004:00000148       __imp_?PxGetAssertHandler@physx@@YAAAVPxAssertHandler@1@XZ 1003a148     PhysX3CommonDEBUG_x86:PhysX3CommonDEBUG_x86.dll
 0004:0000014c       \177PhysX3CommonDEBUG_x86_NULL_THUNK_DATA 1003a14c     PhysX3CommonDEBUG_x86:PhysX3CommonDEBUG_x86.dll
 0004:00000198       __imp____vcrt_LoadLibraryExW 1003a198     vcruntimed:VCRUNTIME140D.dll
 0004:0000019c       __imp__memcpy              1003a19c     vcruntimed:VCRUNTIME140D.dll
 0004:000001a0       __imp__memset              1003a1a0     vcruntimed:VCRUNTIME140D.dll
 0004:000001a4       __imp____std_type_info_name 1003a1a4     vcruntimed:VCRUNTIME140D.dll
 0004:000001a8       __imp____std_type_info_destroy_list 1003a1a8     vcruntimed:VCRUNTIME140D.dll
 0004:000001ac       __imp____telemetry_main_invoke_trigger 1003a1ac     vcruntimed:VCRUNTIME140D.dll
 0004:000001b0       __imp____telemetry_main_return_trigger 1003a1b0     vcruntimed:VCRUNTIME140D.dll
 0004:000001b4       __imp___except_handler4_common 1003a1b4     vcruntimed:VCRUNTIME140D.dll
 0004:000001b8       __imp____vcrt_GetModuleFileNameW 1003a1b8     vcruntimed:VCRUNTIME140D.dll
 0004:000001bc       __imp____vcrt_GetModuleHandleW 1003a1bc     vcruntimed:VCRUNTIME140D.dll
 0004:000001c0       __imp___purecall           1003a1c0     vcruntimed:VCRUNTIME140D.dll
 0004:000001c4       \177VCRUNTIME140D_NULL_THUNK_DATA 1003a1c4     vcruntimed:VCRUNTIME140D.dll
 0004:000001f8       __imp___initialize_narrow_environment 1003a1f8     ucrtd:ucrtbased.dll
 0004:000001fc       __imp___seh_filter_dll     1003a1fc     ucrtd:ucrtbased.dll
 0004:00000200       __imp___free_dbg           1003a200     ucrtd:ucrtbased.dll
 0004:00000204       __imp___initterm_e         1003a204     ucrtd:ucrtbased.dll
 0004:00000208       __imp___initterm           1003a208     ucrtd:ucrtbased.dll
 0004:0000020c       __imp___initialize_onexit_table 1003a20c     ucrtd:ucrtbased.dll
 0004:00000210       __imp___CrtDbgReportW      1003a210     ucrtd:ucrtbased.dll
 0004:00000214       __imp___CrtDbgReport       1003a214     ucrtd:ucrtbased.dll
 0004:00000218       __imp___fpclass            1003a218     ucrtd:ucrtbased.dll
 0004:0000021c       __imp__sqrt                1003a21c     ucrtd:ucrtbased.dll
 0004:00000220       __imp__fabs                1003a220     ucrtd:ucrtbased.dll
 0004:00000224       __imp___register_onexit_function 1003a224     ucrtd:ucrtbased.dll
 0004:00000228       __imp___execute_onexit_table 1003a228     ucrtd:ucrtbased.dll
 0004:0000022c       __imp___crt_atexit         1003a22c     ucrtd:ucrtbased.dll
 0004:00000230       __imp___crt_at_quick_exit  1003a230     ucrtd:ucrtbased.dll
 0004:00000234       __imp__wcscpy_s            1003a234     ucrtd:ucrtbased.dll
 0004:00000238       __imp___wsplitpath_s       1003a238     ucrtd:ucrtbased.dll
 0004:0000023c       __imp___wmakepath_s        1003a23c     ucrtd:ucrtbased.dll
 0004:00000240       __imp____stdio_common_vsprintf_s 1003a240     ucrtd:ucrtbased.dll
 0004:00000244       __imp__terminate           1003a244     ucrtd:ucrtbased.dll
 0004:00000248       __imp___except1            1003a248     ucrtd:ucrtbased.dll
 0004:0000024c       __imp___cexit              1003a24c     ucrtd:ucrtbased.dll
 0004:00000250       \177ucrtbased_NULL_THUNK_DATA 1003a250     ucrtd:ucrtbased.dll
 0004:0000028c       __IMPORT_DESCRIPTOR_PhysX3CommonDEBUG_x86 1003a28c     PhysX3CommonDEBUG_x86:PhysX3CommonDEBUG_x86.dll
 0004:000002a0       __IMPORT_DESCRIPTOR_VCRUNTIME140D 1003a2a0     vcruntimed:VCRUNTIME140D.dll
 0004:000002b4       __IMPORT_DESCRIPTOR_ucrtbased 1003a2b4     ucrtd:ucrtbased.dll
 0004:000002c8       __IMPORT_DESCRIPTOR_KERNEL32 1003a2c8     kernel32:KERNEL32.dll
 0004:000002dc       __NULL_IMPORT_DESCRIPTOR   1003a2dc     PhysX3CommonDEBUG_x86:PhysX3CommonDEBUG_x86.dll
 0006:00000000       ___guard_check_icall_fptr  1003d000     MSVCRTD:guard_support.obj
